SUO	Series	Model Code	Region	Dealer Code	Dealer Name	Production Mth	OW Date	OW Customer	NFSA App Number	NFSA Finance Settlement Date	Retail Date	Rego No.	Demo/CC Onsell Date	Retail Customer Name	Fleet Customer Name	Fleet Registration Number	Sales Type	List Price	Special Assistance Number	Special Assistance Discount	Special Assistance Amount	Dealer Delivery Fee	Claim Amount	Campaign Description	
2422978	D23	NAVDP2YA2RX	NSW	30517	Suttons Homebush Nissan	Apr 2017	27/07/2017	DEPT OF FINANCE SERVICES AND I			31/07/2017	CM50JL		DEPT OF FINANCE SERVICES AND I	DEPT OF FINANCE SERVICES AND INNOVATION	144727	S	 32,263.64							
2430398	D23	NAVDP2YA2RX	NSW	30517	Suttons Homebush Nissan	May 2017	23/07/2017	MR SUNG SONG			31/07/2017	DQC62K		MR SUNG SONG			R	 32,263.64					    1,363.63	D23  RETAIL BONUS	
2450392	D23	NAVDP2YA2RX	NSW	30517	Suttons Homebush Nissan	Sep 2017	28/12/2017	MAS CLADDING SOLUTIONS PTY LTD			29/12/2017	TBA		MAS CLADDING SOLUTIONS PTY LTD	Business Fleet - Small	5868	B	 32,263.64					    2,396.76	D23 SERIES 2 ORC	
2450392	D23	NAVDP2YA2RX	NSW	30517	Suttons Homebush Nissan	Sep 2017	28/12/2017	MAS CLADDING SOLUTIONS PTY LTD			29/12/2017	TBA		MAS CLADDING SOLUTIONS PTY LTD	Business Fleet - Small	5868	B	 32,263.64					      909.09	D23 RETAIL BONUS	
2450392	D23	NAVDP2YA2RX	NSW	30517	Suttons Homebush Nissan	Sep 2017	28/12/2017	MAS CLADDING SOLUTIONS PTY LTD			29/12/2017	TBA		MAS CLADDING SOLUTIONS PTY LTD	Business Fleet - Small	5868	B	 32,263.64					      454.54	BOXING DAY SALE	
2450392	D23	NAVDP2YA2RX	NSW	30517	Suttons Homebush Nissan	Sep 2017	28/12/2017	MAS CLADDING SOLUTIONS PTY LTD			29/12/2017	TBA		MAS CLADDING SOLUTIONS PTY LTD	Business Fleet - Small	5868	B	 32,263.64					      335.24	Manual Claim	
2450392	D23	NAVDP2YA2RX	NSW	30517	Suttons Homebush Nissan	Sep 2017	28/12/2017	MAS CLADDING SOLUTIONS PTY LTD			29/12/2017	TBA		MAS CLADDING SOLUTIONS PTY LTD	Business Fleet - Small	5868	B	 32,263.64					      600.00	Dealer Fleet Claim authorised 30/12/2017	
2398941	D23	NAVDP2YA2ST	NSW	30517	Suttons Homebush Nissan	Dec 2016	03/07/2017	OMNI FLOOR AUSTRALIA P/L			14/07/2017	DNH77K		OMNI FLOOR AUSTRALIA P/L			R	 38,627.27					    2,857.00	D23 SERIES 2 ORC	
2398941	D23	NAVDP2YA2ST	NSW	30517	Suttons Homebush Nissan	Dec 2016	03/07/2017	OMNI FLOOR AUSTRALIA P/L			14/07/2017	DNH77K		OMNI FLOOR AUSTRALIA P/L			R	 38,627.27					    1,818.18	D23  RETAIL BONUS	
2398941	D23	NAVDP2YA2ST	NSW	30517	Suttons Homebush Nissan	Dec 2016	03/07/2017	OMNI FLOOR AUSTRALIA P/L			14/07/2017	DNH77K		OMNI FLOOR AUSTRALIA P/L			R	 38,627.27					      909.09	D23 AGED BONUS - SERIES 2	
2403163	D23	NAVDP2YA2ST	NSW	30517	Suttons Homebush Nissan	Jan 2017	29/06/2017	MASTERS PLUMBING PTY LTD			06/07/2017	DNH76Y		MASTERS PLUMBING PTY LTD			R	 39,077.27					    2,905.00	D23 SERIES 2 ORC	
2403163	D23	NAVDP2YA2ST	NSW	30517	Suttons Homebush Nissan	Jan 2017	29/06/2017	MASTERS PLUMBING PTY LTD			06/07/2017	DNH76Y		MASTERS PLUMBING PTY LTD			R	 39,077.27					    1,818.18	D23  RETAIL BONUS	
2416471	D23	NAVDP2YA2ST	NSW	30517	Suttons Homebush Nissan	Mar 2017					21/07/2017	DPS92L	29/03/2018	SUTTONS HOMEBUSH NISSAN	Business Fleet - Small	5868	D	 38,627.27					    2,820.00	D23 ORC	
2416471	D23	NAVDP2YA2ST	NSW	30517	Suttons Homebush Nissan	Mar 2017					21/07/2017	DPS92L	29/03/2018	SUTTONS HOMEBUSH NISSAN	Business Fleet - Small	5868	D	 38,627.27					    2,327.27	D23 RETAIL BONUS	
2416471	D23	NAVDP2YA2ST	NSW	30517	Suttons Homebush Nissan	Mar 2017					21/07/2017	DPS92L	29/03/2018	SUTTONS HOMEBUSH NISSAN	Business Fleet - Small	5868	D	 38,627.27					      909.09	D23 AGED BONUS - SERIES 2	
2416471	D23	NAVDP2YA2ST	NSW	30517	Suttons Homebush Nissan	Mar 2017					21/07/2017	DPS92L	29/03/2018	SUTTONS HOMEBUSH NISSAN	Business Fleet - Small	5868	D	 38,627.27					      211.14	CVP JULY 2017	
2416471	D23	NAVDP2YA2ST	NSW	30517	Suttons Homebush Nissan	Mar 2017					21/07/2017	DPS92L	29/03/2018	SUTTONS HOMEBUSH NISSAN	Business Fleet - Small	5868	D	 38,627.27					      233.76	CVP AUGUST 2017	
2416471	D23	NAVDP2YA2ST	NSW	30517	Suttons Homebush Nissan	Mar 2017					21/07/2017	DPS92L	29/03/2018	SUTTONS HOMEBUSH NISSAN	Business Fleet - Small	5868	D	 38,627.27					      192.51	CVP SEPTEMBER 2017	
2416471	D23	NAVDP2YA2ST	NSW	30517	Suttons Homebush Nissan	Mar 2017					21/07/2017	DPS92L	29/03/2018	SUTTONS HOMEBUSH NISSAN	Business Fleet - Small	5868	D	 38,627.27					      192.51	CVP OCTOBER 2017	
2416471	D23	NAVDP2YA2ST	NSW	30517	Suttons Homebush Nissan	Mar 2017					21/07/2017	DPS92L	29/03/2018	SUTTONS HOMEBUSH NISSAN	Business Fleet - Small	5868	D	 38,627.27					      181.81	CVP NOVEMBER 2017	
2416471	D23	NAVDP2YA2ST	NSW	30517	Suttons Homebush Nissan	Mar 2017					21/07/2017	DPS92L	29/03/2018	SUTTONS HOMEBUSH NISSAN	Business Fleet - Small	5868	D	 38,627.27					      187.01	CVP DECEMBER 2017	
2416471	D23	NAVDP2YA2ST	NSW	30517	Suttons Homebush Nissan	Mar 2017					21/07/2017	DPS92L	29/03/2018	SUTTONS HOMEBUSH NISSAN	Business Fleet - Small	5868	D	 38,627.27					      700.00	Dealer Fleet Claim authorised 30/03/2018	
2426068	D23	NAVDP2YA2ST	NSW	30517	Suttons Homebush Nissan	Jun 2017	30/09/2017	MR NIMA RYAN			30/09/2017	DTG45P		MR NIMA RYAN			R	 39,077.27					    2,786.00	D23 SERIES 2 ORC	
2426068	D23	NAVDP2YA2ST	NSW	30517	Suttons Homebush Nissan	Jun 2017	30/09/2017	MR NIMA RYAN			30/09/2017	DTG45P		MR NIMA RYAN			R	 39,077.27					    2,236.36	D23 RETAIL BONUS	
2436899	D23	NAVDP2YA2ST	NSW	30517	Suttons Homebush Nissan	Jun 2017	16/08/2017	S K SUPERSEAL PTY LTD			31/08/2017	DQN76D		S K SUPERSEAL PTY LTD	Business Fleet - Small	5868	B	 38,627.27					    2,356.00	D23 SERIES 2 ORC	
2436899	D23	NAVDP2YA2ST	NSW	30517	Suttons Homebush Nissan	Jun 2017	16/08/2017	S K SUPERSEAL PTY LTD			31/08/2017	DQN76D		S K SUPERSEAL PTY LTD	Business Fleet - Small	5868	B	 38,627.27					    1,818.18	D23  RETAIL BONUS	
2436899	D23	NAVDP2YA2ST	NSW	30517	Suttons Homebush Nissan	Jun 2017	16/08/2017	S K SUPERSEAL PTY LTD			31/08/2017	DQN76D		S K SUPERSEAL PTY LTD	Business Fleet - Small	5868	B	 38,627.27					      700.00	Dealer Fleet Claim authorised 01/09/2017	
2439183	D23	NAVDP2YA2ST	NSW	30517	Suttons Homebush Nissan	Jul 2017	23/01/2018	LIQUOR MARKETING GROUP LTD			31/01/2018	DTX17F		LIQUOR MARKETING GROUP LTD	LIQUOR MARKETING GROUP LTD	127410	N	 38,627.27					    1,600.00	NAVARA NATIONAL FLEET	
2439183	D23	NAVDP2YA2ST	NSW	30517	Suttons Homebush Nissan	Jul 2017	23/01/2018	LIQUOR MARKETING GROUP LTD			31/01/2018	DTX17F		LIQUOR MARKETING GROUP LTD	LIQUOR MARKETING GROUP LTD	127410	N	 38,627.27					    3,700.00	Dealer Fleet Claim authorised 01/02/2018	
2439141	D23	NAVDP2YA2ST	NSW	30517	Suttons Homebush Nissan	Jul 2017	28/02/2018	MR DAVID CHALLINOR			28/02/2018	DTX16K		MR DAVID CHALLINOR	Business Fleet - Small	5868	B	 39,127.27					    2,342.00	D23 ORC	
2439141	D23	NAVDP2YA2ST	NSW	30517	Suttons Homebush Nissan	Jul 2017	28/02/2018	MR DAVID CHALLINOR			28/02/2018	DTX16K		MR DAVID CHALLINOR	Business Fleet - Small	5868	B	 39,127.27					      681.81	NISSAN LOYALTY PROGRAM	
2439141	D23	NAVDP2YA2ST	NSW	30517	Suttons Homebush Nissan	Jul 2017	28/02/2018	MR DAVID CHALLINOR			28/02/2018	DTX16K		MR DAVID CHALLINOR	Business Fleet - Small	5868	B	 39,127.27					    2,327.27	D23 RETAIL BONUS	
2439141	D23	NAVDP2YA2ST	NSW	30517	Suttons Homebush Nissan	Jul 2017	28/02/2018	MR DAVID CHALLINOR			28/02/2018	DTX16K		MR DAVID CHALLINOR	Business Fleet - Small	5868	B	 39,127.27					      700.00	Dealer Fleet Claim authorised 01/03/2018	
2438339	D23	NAVDP2YA2ST	NSW	30517	Suttons Homebush Nissan	Aug 2017	03/10/2017	MR SPIRO TSAKONAS			09/10/2017	DQW90V		MR SPIRO TSAKONAS	Nissan Dealership Employee	105841	E	 38,627.27					      450.00	NAVARA PREMIUM FLEET	
2438339	D23	NAVDP2YA2ST	NSW	30517	Suttons Homebush Nissan	Aug 2017	03/10/2017	MR SPIRO TSAKONAS			09/10/2017	DQW90V		MR SPIRO TSAKONAS	Nissan Dealership Employee	105841	E	 38,627.27					      750.00	OCT 17 D23 STRREETCH	
2438339	D23	NAVDP2YA2ST	NSW	30517	Suttons Homebush Nissan	Aug 2017	03/10/2017	MR SPIRO TSAKONAS			09/10/2017	DQW90V		MR SPIRO TSAKONAS	Nissan Dealership Employee	105841	E	 38,627.27					    3,900.00	Dealer Fleet Claim authorised 10/10/2017	
2444413	D23	NAVDP2YA2ST	NSW	30517	Suttons Homebush Nissan	Aug 2017	30/09/2017	MANGO PAINTING DI PTY LTD			30/09/2017	DQW91A		MANGO PAINTING DI PTY LTD	Business Fleet - Small	5868	R	 38,627.27					    2,863.00	D23 SERIES 2 ORC	
2444413	D23	NAVDP2YA2ST	NSW	30517	Suttons Homebush Nissan	Aug 2017	30/09/2017	MANGO PAINTING DI PTY LTD			30/09/2017	DQW91A		MANGO PAINTING DI PTY LTD	Business Fleet - Small	5868	R	 38,627.27					    2,236.36	D23 RETAIL BONUS	
2444413	D23	NAVDP2YA2ST	NSW	30517	Suttons Homebush Nissan	Aug 2017	30/09/2017	MANGO PAINTING DI PTY LTD			30/09/2017	DQW91A		MANGO PAINTING DI PTY LTD	Business Fleet - Small	5868	R	 38,627.27					      700.00	Dealer Fleet Claim authorised 06/10/2017	
2444419	D23	NAVDP2YA2ST	NSW	30517	Suttons Homebush Nissan	Aug 2017	30/09/2017	MR SPIRO TSAKONAS			30/09/2017	CO31SQ		MR SPIRO TSAKONAS			R	 38,627.27					    2,803.00	D23 SERIES 2 ORC	
2444419	D23	NAVDP2YA2ST	NSW	30517	Suttons Homebush Nissan	Aug 2017	30/09/2017	MR SPIRO TSAKONAS			30/09/2017	CO31SQ		MR SPIRO TSAKONAS			R	 38,627.27					    2,236.36	D23 RETAIL BONUS	
2444362	D23	NAVDP2YA2ST	NSW	30517	Suttons Homebush Nissan	Aug 2017	10/12/2017	AUSTRALIAN BRUSHWARE CORPORATI			30/01/2018	DTG45A		AUSTRALIAN BRUSHWARE CORPORATI	AUSTRALIAN BRUSHWARE CORPORATION PTY LTD	124646	N	 38,627.27					    1,600.00	NAVARA NATIONAL FLEET	
2444362	D23	NAVDP2YA2ST	NSW	30517	Suttons Homebush Nissan	Aug 2017	10/12/2017	AUSTRALIAN BRUSHWARE CORPORATI			30/01/2018	DTG45A		AUSTRALIAN BRUSHWARE CORPORATI	AUSTRALIAN BRUSHWARE CORPORATION PTY LTD	124646	N	 38,627.27					    3,700.00	Dealer Fleet Claim authorised 31/01/2018	
2386500	D23	NAVDP2YA2STX	NSW	30517	Suttons Homebush Nissan	Oct 2016					30/12/2016	DNE40Y	31/08/2017	MR DONATO CASORIA			R	 43,172.73					    2,791.00	D23 SERIES 2 ORC	
2386500	D23	NAVDP2YA2STX	NSW	30517	Suttons Homebush Nissan	Oct 2016					30/12/2016	DNE40Y	31/08/2017	MR DONATO CASORIA			R	 43,172.73					    1,818.18	D23  RETAIL BONUS	
2386500	D23	NAVDP2YA2STX	NSW	30517	Suttons Homebush Nissan	Oct 2016					30/12/2016	DNE40Y	31/08/2017	MR DONATO CASORIA			R	 43,172.73					      909.09	D23 AGED BONUS - SERIES 2	
2393580	D23	NAVDP2YA2STX	NSW	30517	Suttons Homebush Nissan	Nov 2016					28/02/2017	DNF02Z	31/08/2017	COUPLE JORGE & DANIELLE RODAS			R	 43,172.73					    3,006.00	D23 SERIES 2 ORC	
2393580	D23	NAVDP2YA2STX	NSW	30517	Suttons Homebush Nissan	Nov 2016					28/02/2017	DNF02Z	31/08/2017	COUPLE JORGE & DANIELLE RODAS			R	 43,172.73					    1,818.18	D23  RETAIL BONUS	
2393580	D23	NAVDP2YA2STX	NSW	30517	Suttons Homebush Nissan	Nov 2016					28/02/2017	DNF02Z	31/08/2017	COUPLE JORGE & DANIELLE RODAS			R	 43,172.73					      909.09	D23 AGED BONUS - SERIES 2	
2402422	D23	NAVDP2YA2STX	NSW	30517	Suttons Homebush Nissan	Jan 2017	29/12/2017	MR KEVIN TOMPKIN			29/12/2017	DTE01M		MR KEVIN TOMPKIN			R	 43,622.73					    2,683.00	D23 SERIES 2 ORC	
2402422	D23	NAVDP2YA2STX	NSW	30517	Suttons Homebush Nissan	Jan 2017	29/12/2017	MR KEVIN TOMPKIN			29/12/2017	DTE01M		MR KEVIN TOMPKIN			R	 43,622.73					      454.54	BOXING DAY SALE	
2402422	D23	NAVDP2YA2STX	NSW	30517	Suttons Homebush Nissan	Jan 2017	29/12/2017	MR KEVIN TOMPKIN			29/12/2017	DTE01M		MR KEVIN TOMPKIN			R	 43,622.73					    2,127.27	D23 RETAIL BONUS	
2403199	D23	NAVDP2YA2STX	NSW	30517	Suttons Homebush Nissan	Jan 2017	28/01/2018	MR MARLON YOULLEY			31/01/2018	DTG45H		MR MARLON YOULLEY	Business Fleet - Small	5868	B	 43,622.73					    2,804.00	D23 SERIES 2 ORC	
2403199	D23	NAVDP2YA2STX	NSW	30517	Suttons Homebush Nissan	Jan 2017	28/01/2018	MR MARLON YOULLEY			31/01/2018	DTG45H		MR MARLON YOULLEY	Business Fleet - Small	5868	B	 43,622.73					    2,127.27	D23 RETAIL BONUS	
2403199	D23	NAVDP2YA2STX	NSW	30517	Suttons Homebush Nissan	Jan 2017	28/01/2018	MR MARLON YOULLEY			31/01/2018	DTG45H		MR MARLON YOULLEY	Business Fleet - Small	5868	B	 43,622.73					      800.00	Dealer Fleet Claim authorised 01/02/2018	
2393586	D23	NAVDP2YM2RX	NSW	30517	Suttons Homebush Nissan	Nov 2016					30/09/2017	DVK70B	31/03/2018	SUTTONS HOMEBUSH NISSAN	Business Fleet - Small	5868	D	 30,440.91					    1,889.00	D23 ORC	
2393586	D23	NAVDP2YM2RX	NSW	30517	Suttons Homebush Nissan	Nov 2016					30/09/2017	DVK70B	31/03/2018	SUTTONS HOMEBUSH NISSAN	Business Fleet - Small	5868	D	 30,440.91					      909.09	D23 RETAIL BONUS	
2393586	D23	NAVDP2YM2RX	NSW	30517	Suttons Homebush Nissan	Nov 2016					30/09/2017	DVK70B	31/03/2018	SUTTONS HOMEBUSH NISSAN	Business Fleet - Small	5868	D	 30,440.91					      909.09	D23 AGED BONUS - SERIES 2	
2393586	D23	NAVDP2YM2RX	NSW	30517	Suttons Homebush Nissan	Nov 2016					30/09/2017	DVK70B	31/03/2018	SUTTONS HOMEBUSH NISSAN	Business Fleet - Small	5868	D	 30,440.91					      192.51	CVP SEPTEMBER 2017	
2393586	D23	NAVDP2YM2RX	NSW	30517	Suttons Homebush Nissan	Nov 2016					30/09/2017	DVK70B	31/03/2018	SUTTONS HOMEBUSH NISSAN	Business Fleet - Small	5868	D	 30,440.91					      192.51	CVP OCTOBER 2017	
2393586	D23	NAVDP2YM2RX	NSW	30517	Suttons Homebush Nissan	Nov 2016					30/09/2017	DVK70B	31/03/2018	SUTTONS HOMEBUSH NISSAN	Business Fleet - Small	5868	D	 30,440.91					      181.81	CVP NOVEMBER 2017	
2393586	D23	NAVDP2YM2RX	NSW	30517	Suttons Homebush Nissan	Nov 2016					30/09/2017	DVK70B	31/03/2018	SUTTONS HOMEBUSH NISSAN	Business Fleet - Small	5868	D	 30,440.91					      187.01	CVP DECEMBER 2017	
2393586	D23	NAVDP2YM2RX	NSW	30517	Suttons Homebush Nissan	Nov 2016					30/09/2017	DVK70B	31/03/2018	SUTTONS HOMEBUSH NISSAN	Business Fleet - Small	5868	D	 30,440.91					      204.54	CVP JANUARY 2018	
2393586	D23	NAVDP2YM2RX	NSW	30517	Suttons Homebush Nissan	Nov 2016					30/09/2017	DVK70B	31/03/2018	SUTTONS HOMEBUSH NISSAN	Business Fleet - Small	5868	D	 30,440.91					      218.18	CVP FEBRUARY 2018	
2393586	D23	NAVDP2YM2RX	NSW	30517	Suttons Homebush Nissan	Nov 2016					30/09/2017	DVK70B	31/03/2018	SUTTONS HOMEBUSH NISSAN	Business Fleet - Small	5868	D	 30,440.91					      500.00	Dealer Fleet Claim authorised 31/03/2018	
2456243	D23	NAVKC2YM2RX	NSW	30517	Suttons Homebush Nissan	Oct 2017	31/01/2018	E W C CONSTRUCTIONS P/L			31/01/2018	TBA		E W C CONSTRUCTIONS P/L	Business Fleet - Small	5868	B	 25,900.00					    2,518.00	D23 SERIES 2 ORC	
2456243	D23	NAVKC2YM2RX	NSW	30517	Suttons Homebush Nissan	Oct 2017	31/01/2018	E W C CONSTRUCTIONS P/L			31/01/2018	TBA		E W C CONSTRUCTIONS P/L	Business Fleet - Small	5868	B	 25,900.00					      500.00	Dealer Fleet Claim authorised 01/02/2018	
2450466	D23	NAVSC2YM2RX	NSW	30517	Suttons Homebush Nissan	Sep 2017	18/10/2017	GLOWJAN PTY LTD			31/10/2017	DSG18X		GLOWJAN PTY LTD			R	 23,627.27					    2,395.00	D23 SERIES 2 ORC	
2450466	D23	NAVSC2YM2RX	NSW	30517	Suttons Homebush Nissan	Sep 2017	18/10/2017	GLOWJAN PTY LTD			31/10/2017	DSG18X		GLOWJAN PTY LTD			R	 23,627.27					    1,636.36	OCT 17 D23 SC 4X2 RX TRAY BONUS	
2450466	D23	NAVSC2YM2RX	NSW	30517	Suttons Homebush Nissan	Sep 2017	18/10/2017	GLOWJAN PTY LTD			31/10/2017	DSG18X		GLOWJAN PTY LTD			R	 23,627.27					      750.00	OCT 17 D23 STRREETCH	
2454159	D23	NAVSC2YM2RX	NSW	30517	Suttons Homebush Nissan	Oct 2017	14/01/2018	AJK216 PTY LTD			31/01/2018	DTG45C		AJK216 PTY LTD	Business Fleet - Small	5868	B	 23,627.27					    2,318.00	D23 SERIES 2 ORC	
2454159	D23	NAVSC2YM2RX	NSW	30517	Suttons Homebush Nissan	Oct 2017	14/01/2018	AJK216 PTY LTD			31/01/2018	DTG45C		AJK216 PTY LTD	Business Fleet - Small	5868	B	 23,627.27					    1,636.37	D23 SC RX TRAY BONUS JAN 18	
2454159	D23	NAVSC2YM2RX	NSW	30517	Suttons Homebush Nissan	Oct 2017	14/01/2018	AJK216 PTY LTD			31/01/2018	DTG45C		AJK216 PTY LTD	Business Fleet - Small	5868	B	 23,627.27					      300.00	Dealer Fleet Claim authorised 01/02/2018	
2462625	D23	NAVSC2YM2RX	NSW	30517	Suttons Homebush Nissan	Nov 2017	15/01/2018	G A ELECTRICAL CONTRACTORS P/L			31/01/2018	TBA		G A ELECTRICAL CONTRACTORS P/L	Business Fleet - Small	5868	B	 23,627.27					    2,245.00	D23 SERIES 2 ORC	
2462625	D23	NAVSC2YM2RX	NSW	30517	Suttons Homebush Nissan	Nov 2017	15/01/2018	G A ELECTRICAL CONTRACTORS P/L			31/01/2018	TBA		G A ELECTRICAL CONTRACTORS P/L	Business Fleet - Small	5868	B	 23,627.27					    1,636.37	D23 SC RX TRAY BONUS JAN 18	
2462625	D23	NAVSC2YM2RX	NSW	30517	Suttons Homebush Nissan	Nov 2017	15/01/2018	G A ELECTRICAL CONTRACTORS P/L			31/01/2018	TBA		G A ELECTRICAL CONTRACTORS P/L	Business Fleet - Small	5868	B	 23,627.27					      300.00	Dealer Fleet Claim authorised 01/02/2018	
2393637	D23	NAVDC4YA2RX	NSW	30517	Suttons Homebush Nissan	Nov 2016					28/02/2017	DPB43A	31/10/2017	JXL BUILDING P/L	Business Fleet - Small	5868	B	 37,263.64					    1,363.63	D23 RETAIL BONUS	
2393637	D23	NAVDC4YA2RX	NSW	30517	Suttons Homebush Nissan	Nov 2016					28/02/2017	DPB43A	31/10/2017	JXL BUILDING P/L	Business Fleet - Small	5868	B	 37,263.64					      909.09	D23 AGED BONUS - SERIES 2	
2393637	D23	NAVDC4YA2RX	NSW	30517	Suttons Homebush Nissan	Nov 2016					28/02/2017	DPB43A	31/10/2017	JXL BUILDING P/L	Business Fleet - Small	5868	B	 37,263.64					    6,545.45	CVP EXEMPTION FEB17	
2393637	D23	NAVDC4YA2RX	NSW	30517	Suttons Homebush Nissan	Nov 2016					28/02/2017	DPB43A	31/10/2017	JXL BUILDING P/L	Business Fleet - Small	5868	B	 37,263.64					      700.00	Dealer Fleet Claim authorised 01/11/2017	
2393630	D23	NAVDC4YA2RX	NSW	30517	Suttons Homebush Nissan	Nov 2016	01/11/2017	BUREAU VERITAS AUSTRALIA PTY L			30/11/2017	TBA		BUREAU VERITAS AUSTRALIA PTY L	BUREAU VERITAS AUSTRALIA PTY LTD	141919	N	 37,263.64					    2,000.00	NAVARA NATIONAL FLEET	
2393630	D23	NAVDC4YA2RX	NSW	30517	Suttons Homebush Nissan	Nov 2016	01/11/2017	BUREAU VERITAS AUSTRALIA PTY L			30/11/2017	TBA		BUREAU VERITAS AUSTRALIA PTY L	BUREAU VERITAS AUSTRALIA PTY LTD	141919	N	 37,263.64					    5,000.00	Dealer Fleet Claim authorised 01/12/2017	
2448497	D23	NAVDP4YA2RX	NSW	30517	Suttons Homebush Nissan	Sep 2017	28/11/2017	SERCO AUSTRALIA PTY LIMITED			30/11/2017	TBA		SERCO AUSTRALIA PTY LIMITED	SERCO AUSTRALIA PTY LIMITED	113704	N	 38,627.27					    2,000.00	NAVARA NATIONAL FLEET	
2448497	D23	NAVDP4YA2RX	NSW	30517	Suttons Homebush Nissan	Sep 2017	28/11/2017	SERCO AUSTRALIA PTY LIMITED			30/11/2017	TBA		SERCO AUSTRALIA PTY LIMITED	SERCO AUSTRALIA PTY LIMITED	113704	N	 38,627.27					      454.55	NOV 17 CLOSING BONUS	
2448497	D23	NAVDP4YA2RX	NSW	30517	Suttons Homebush Nissan	Sep 2017	28/11/2017	SERCO AUSTRALIA PTY LIMITED			30/11/2017	TBA		SERCO AUSTRALIA PTY LIMITED	SERCO AUSTRALIA PTY LIMITED	113704	N	 38,627.27					    5,800.00	Dealer Fleet Claim authorised 01/12/2017	
2448498	D23	NAVDP4YA2RX	NSW	30517	Suttons Homebush Nissan	Sep 2017	28/11/2017	SERCO AUSTRALIA PTY LIMITED			30/11/2017	TBA		SERCO AUSTRALIA PTY LIMITED	SERCO AUSTRALIA PTY LIMITED	113704	N	 38,627.27					    2,000.00	NAVARA NATIONAL FLEET	
2448498	D23	NAVDP4YA2RX	NSW	30517	Suttons Homebush Nissan	Sep 2017	28/11/2017	SERCO AUSTRALIA PTY LIMITED			30/11/2017	TBA		SERCO AUSTRALIA PTY LIMITED	SERCO AUSTRALIA PTY LIMITED	113704	N	 38,627.27					      454.55	NOV 17 CLOSING BONUS	
2448498	D23	NAVDP4YA2RX	NSW	30517	Suttons Homebush Nissan	Sep 2017	28/11/2017	SERCO AUSTRALIA PTY LIMITED			30/11/2017	TBA		SERCO AUSTRALIA PTY LIMITED	SERCO AUSTRALIA PTY LIMITED	113704	N	 38,627.27					    5,800.00	Dealer Fleet Claim authorised 01/12/2017	
2448499	D23	NAVDP4YA2RX	NSW	30517	Suttons Homebush Nissan	Sep 2017	29/01/2018	GUN AND WON PTY LTD			31/01/2018	DTX17R		GUN AND WON PTY LTD	Business Fleet - Small	5868	B	 38,627.27					    2,653.00	D23 SERIES 2 ORC	
2448499	D23	NAVDP4YA2RX	NSW	30517	Suttons Homebush Nissan	Sep 2017	29/01/2018	GUN AND WON PTY LTD			31/01/2018	DTX17R		GUN AND WON PTY LTD	Business Fleet - Small	5868	B	 38,627.27					    4,090.90	D23 RETAIL BONUS	
2448499	D23	NAVDP4YA2RX	NSW	30517	Suttons Homebush Nissan	Sep 2017	29/01/2018	GUN AND WON PTY LTD			31/01/2018	DTX17R		GUN AND WON PTY LTD	Business Fleet - Small	5868	B	 38,627.27					      700.00	Dealer Fleet Claim authorised 01/02/2018	
2398256	D23	NAVDP4YA2SL	NSW	30517	Suttons Homebush Nissan	Dec 2016					31/03/2017	DNH77B	10/07/2017	MR OSIMER DE'OLIVIA SILVA			R	 42,263.64					    2,881.00	D23 SERIES 2 ORC	
2398256	D23	NAVDP4YA2SL	NSW	30517	Suttons Homebush Nissan	Dec 2016					31/03/2017	DNH77B	10/07/2017	MR OSIMER DE'OLIVIA SILVA			R	 42,263.64					    4,409.09	D23  RETAIL BONUS	
2398256	D23	NAVDP4YA2SL	NSW	30517	Suttons Homebush Nissan	Dec 2016					31/03/2017	DNH77B	10/07/2017	MR OSIMER DE'OLIVIA SILVA			R	 42,263.64					      909.09	D23 AGED BONUS - SERIES 2	
2398256	D23	NAVDP4YA2SL	NSW	30517	Suttons Homebush Nissan	Dec 2016					31/03/2017	DNH77B	10/07/2017	MR OSIMER DE'OLIVIA SILVA			R	 42,263.64					    1,818.18	D23 CASHBACK AMOUNT 1	
2412457	D23	NAVDP4YA2SL	NSW	30517	Suttons Homebush Nissan	Feb 2017	16/07/2017	MR ELLIOTT SMITH			31/07/2017	DPS93X		MR ELLIOTT SMITH			R	 42,263.64					    2,875.00	D23 SERIES 2 ORC	
2412457	D23	NAVDP4YA2SL	NSW	30517	Suttons Homebush Nissan	Feb 2017	16/07/2017	MR ELLIOTT SMITH			31/07/2017	DPS93X		MR ELLIOTT SMITH			R	 42,263.64					    4,409.09	D23  RETAIL BONUS	
2412457	D23	NAVDP4YA2SL	NSW	30517	Suttons Homebush Nissan	Feb 2017	16/07/2017	MR ELLIOTT SMITH			31/07/2017	DPS93X		MR ELLIOTT SMITH			R	 42,263.64					    1,818.18	D23 CASHBACK AMOUNT 1	
2412464	D23	NAVDP4YA2SL	NSW	30517	Suttons Homebush Nissan	Feb 2017	20/08/2017	DECK FORM PTY LTD			31/08/2017	DQN76C		DECK FORM PTY LTD	Business Fleet - Small	5868	B	 42,263.64					    3,187.00	D23 SERIES 2 ORC	
2412464	D23	NAVDP4YA2SL	NSW	30517	Suttons Homebush Nissan	Feb 2017	20/08/2017	DECK FORM PTY LTD			31/08/2017	DQN76C		DECK FORM PTY LTD	Business Fleet - Small	5868	B	 42,263.64					    4,409.09	D23  RETAIL BONUS	
2412464	D23	NAVDP4YA2SL	NSW	30517	Suttons Homebush Nissan	Feb 2017	20/08/2017	DECK FORM PTY LTD			31/08/2017	DQN76C		DECK FORM PTY LTD	Business Fleet - Small	5868	B	 42,263.64					    1,818.18	D23 CASHBACK AMOUNT 1	
2412464	D23	NAVDP4YA2SL	NSW	30517	Suttons Homebush Nissan	Feb 2017	20/08/2017	DECK FORM PTY LTD			31/08/2017	DQN76C		DECK FORM PTY LTD	Business Fleet - Small	5868	B	 42,263.64					      800.00	Dealer Fleet Claim authorised 01/09/2017	
2412456	D23	NAVDP4YA2SL	NSW	30517	Suttons Homebush Nissan	Feb 2017	13/07/2017	MR JAMES O'LEARY			20/07/2017	DNH77U		MR JAMES O'LEARY			R	 42,263.64					    2,542.00	D23 SERIES 2 ORC	
2412456	D23	NAVDP4YA2SL	NSW	30517	Suttons Homebush Nissan	Feb 2017	13/07/2017	MR JAMES O'LEARY			20/07/2017	DNH77U		MR JAMES O'LEARY			R	 42,263.64					    4,409.09	D23  RETAIL BONUS	
2412456	D23	NAVDP4YA2SL	NSW	30517	Suttons Homebush Nissan	Feb 2017	13/07/2017	MR JAMES O'LEARY			20/07/2017	DNH77U		MR JAMES O'LEARY			R	 42,263.64					    1,818.18	D23 CASHBACK AMOUNT 1	
2412465	D23	NAVDP4YA2SL	NSW	30517	Suttons Homebush Nissan	Feb 2017	23/10/2017	P S K PTY LTD	P-201710232		27/10/2017	DQW91Y		P S K PTY LTD	Business Fleet - Small	5868	B	 42,263.64					    3,052.00	D23 SERIES 2 ORC	
2412465	D23	NAVDP4YA2SL	NSW	30517	Suttons Homebush Nissan	Feb 2017	23/10/2017	P S K PTY LTD	P-201710232		27/10/2017	DQW91Y		P S K PTY LTD	Business Fleet - Small	5868	B	 42,263.64					    2,136.36	SL RETAIL BONUS	
2412465	D23	NAVDP4YA2SL	NSW	30517	Suttons Homebush Nissan	Feb 2017	23/10/2017	P S K PTY LTD	P-201710232		27/10/2017	DQW91Y		P S K PTY LTD	Business Fleet - Small	5868	B	 42,263.64					      750.00	OCT 17 D23 STRREETCH	
2412465	D23	NAVDP4YA2SL	NSW	30517	Suttons Homebush Nissan	Feb 2017	23/10/2017	P S K PTY LTD	P-201710232		27/10/2017	DQW91Y		P S K PTY LTD	Business Fleet - Small	5868	B	 42,263.64					      800.00	Dealer Fleet Claim authorised 28/10/2017	
2412942	D23	NAVDP4YA2SL	NSW	30517	Suttons Homebush Nissan	Feb 2017	29/10/2017	MR CHEOLWOO JEONG			31/10/2017	DSG18H		MR CHEOLWOO JEONG	Business Fleet - Small	5868	B	 42,263.64					    3,142.00	D23 SERIES 2 ORC	
2412942	D23	NAVDP4YA2SL	NSW	30517	Suttons Homebush Nissan	Feb 2017	29/10/2017	MR CHEOLWOO JEONG			31/10/2017	DSG18H		MR CHEOLWOO JEONG	Business Fleet - Small	5868	B	 42,263.64					    2,136.36	SL RETAIL BONUS	
2412942	D23	NAVDP4YA2SL	NSW	30517	Suttons Homebush Nissan	Feb 2017	29/10/2017	MR CHEOLWOO JEONG			31/10/2017	DSG18H		MR CHEOLWOO JEONG	Business Fleet - Small	5868	B	 42,263.64					      750.00	OCT 17 D23 STRREETCH	
2412942	D23	NAVDP4YA2SL	NSW	30517	Suttons Homebush Nissan	Feb 2017	29/10/2017	MR CHEOLWOO JEONG			31/10/2017	DSG18H		MR CHEOLWOO JEONG	Business Fleet - Small	5868	B	 42,263.64					      800.00	Dealer Fleet Claim authorised 01/11/2017	
2421472	D23	NAVDP4YA2SL	NSW	30517	Suttons Homebush Nissan	Jun 2017	22/10/2017	MR DOUGLAS SMITH	P-201710220		27/10/2017	DSG18D		MR DOUGLAS SMITH	Business Fleet - Small	5868	B	 42,263.64					    2,803.00	D23 SERIES 2 ORC	
2421472	D23	NAVDP4YA2SL	NSW	30517	Suttons Homebush Nissan	Jun 2017	22/10/2017	MR DOUGLAS SMITH	P-201710220		27/10/2017	DSG18D		MR DOUGLAS SMITH	Business Fleet - Small	5868	B	 42,263.64					    2,136.36	SL RETAIL BONUS	
2421472	D23	NAVDP4YA2SL	NSW	30517	Suttons Homebush Nissan	Jun 2017	22/10/2017	MR DOUGLAS SMITH	P-201710220		27/10/2017	DSG18D		MR DOUGLAS SMITH	Business Fleet - Small	5868	B	 42,263.64					      750.00	OCT 17 D23 STRREETCH	
2421472	D23	NAVDP4YA2SL	NSW	30517	Suttons Homebush Nissan	Jun 2017	22/10/2017	MR DOUGLAS SMITH	P-201710220		27/10/2017	DSG18D		MR DOUGLAS SMITH	Business Fleet - Small	5868	B	 42,263.64					      800.00	Dealer Fleet Claim authorised 28/10/2017	
2409535	D23	NAVDP4YA2SL	NSW	30517	Suttons Homebush Nissan	Jun 2017	30/07/2017	SUMDE PTY LTD			31/07/2017	DQC62F		SUMDE PTY LTD	Business Fleet - Small	5868	B	 42,713.64					    3,010.00	D23 SERIES 2 ORC	
2409535	D23	NAVDP4YA2SL	NSW	30517	Suttons Homebush Nissan	Jun 2017	30/07/2017	SUMDE PTY LTD			31/07/2017	DQC62F		SUMDE PTY LTD	Business Fleet - Small	5868	B	 42,713.64					    4,409.09	D23  RETAIL BONUS	
2409535	D23	NAVDP4YA2SL	NSW	30517	Suttons Homebush Nissan	Jun 2017	30/07/2017	SUMDE PTY LTD			31/07/2017	DQC62F		SUMDE PTY LTD	Business Fleet - Small	5868	B	 42,713.64					    1,818.18	D23 CASHBACK AMOUNT 1	
2409535	D23	NAVDP4YA2SL	NSW	30517	Suttons Homebush Nissan	Jun 2017	30/07/2017	SUMDE PTY LTD			31/07/2017	DQC62F		SUMDE PTY LTD	Business Fleet - Small	5868	B	 42,713.64					      800.00	Dealer Fleet Claim authorised 01/08/2017	
2426061	D23	NAVDP4YA2SL	NSW	30517	Suttons Homebush Nissan	Jul 2017	30/09/2017	MR TELE LANGIL			30/09/2017	DXG17A		MR TELE LANGIL	Business Fleet - Small	5868	B	 42,263.64					    2,746.76	D23 SERIES 2 ORC	
2426061	D23	NAVDP4YA2SL	NSW	30517	Suttons Homebush Nissan	Jul 2017	30/09/2017	MR TELE LANGIL			30/09/2017	DXG17A		MR TELE LANGIL	Business Fleet - Small	5868	B	 42,263.64					    2,136.36	SL RETAIL BONUS	
2426061	D23	NAVDP4YA2SL	NSW	30517	Suttons Homebush Nissan	Jul 2017	30/09/2017	MR TELE LANGIL			30/09/2017	DXG17A		MR TELE LANGIL	Business Fleet - Small	5868	B	 42,263.64					      800.00	Dealer Fleet Claim authorised 06/10/2017	
2450697	D23	NAVDP4YA2SL	NSW	30517	Suttons Homebush Nissan	Sep 2017	26/10/2017	MR JIN SUB KIM	P-201710261		31/10/2017	DSG18J		MR JIN SUB KIM			R	 42,713.64					    2,920.00	D23 SERIES 2 ORC	
2450697	D23	NAVDP4YA2SL	NSW	30517	Suttons Homebush Nissan	Sep 2017	26/10/2017	MR JIN SUB KIM	P-201710261		31/10/2017	DSG18J		MR JIN SUB KIM			R	 42,713.64					    2,136.36	SL RETAIL BONUS	
2450697	D23	NAVDP4YA2SL	NSW	30517	Suttons Homebush Nissan	Sep 2017	26/10/2017	MR JIN SUB KIM	P-201710261		31/10/2017	DSG18J		MR JIN SUB KIM			R	 42,713.64					      750.00	OCT 17 D23 STRREETCH	
2448501	D23	NAVDP4YA2SL	NSW	30517	Suttons Homebush Nissan	Sep 2017	12/11/2017	P S K BUILDING SERVICES PTY LT	P-201711120		22/11/2017	DSG19J		P S K BUILDING SERVICES PTY LT	Business Fleet - Small	5868	B	 42,263.64					    3,052.00	D23 SERIES 2 ORC	
2448501	D23	NAVDP4YA2SL	NSW	30517	Suttons Homebush Nissan	Sep 2017	12/11/2017	P S K BUILDING SERVICES PTY LT	P-201711120		22/11/2017	DSG19J		P S K BUILDING SERVICES PTY LT	Business Fleet - Small	5868	B	 42,263.64					    2,136.36	SL RETAIL BONUS	
2448501	D23	NAVDP4YA2SL	NSW	30517	Suttons Homebush Nissan	Sep 2017	12/11/2017	P S K BUILDING SERVICES PTY LT	P-201711120		22/11/2017	DSG19J		P S K BUILDING SERVICES PTY LT	Business Fleet - Small	5868	B	 42,263.64					      800.00	Dealer Fleet Claim authorised 23/11/2017	
2461848	D23	NAVDP4YA2SL	NSW	30517	Suttons Homebush Nissan	Nov 2017	14/11/2017	MR NICHOLAS LELAY			21/12/2017	NJL847		MR NICHOLAS LELAY	Business Fleet - Small	5868	B	 42,713.64					    2,136.36	D23 PROGRAM PROTECTED CLAIM ADDED	
2461848	D23	NAVDP4YA2SL	NSW	30517	Suttons Homebush Nissan	Nov 2017	14/11/2017	MR NICHOLAS LELAY			21/12/2017	NJL847		MR NICHOLAS LELAY	Business Fleet - Small	5868	B	 42,713.64					    2,431.85	D23 ORC	
2461848	D23	NAVDP4YA2SL	NSW	30517	Suttons Homebush Nissan	Nov 2017	14/11/2017	MR NICHOLAS LELAY			21/12/2017	NJL847		MR NICHOLAS LELAY	Business Fleet - Small	5868	B	 42,713.64					      800.00	Dealer Fleet Claim authorised 22/12/2017	
2398676	D23	NAVDP4YA2ST	NSW	30517	Suttons Homebush Nissan	Dec 2016					30/01/2018	DTG45U	30/04/2018	SUTTONS HOMEBUSH NISSAN			D	 44,990.91					    2,671.00	D23 ORC	
2398676	D23	NAVDP4YA2ST	NSW	30517	Suttons Homebush Nissan	Dec 2016					30/01/2018	DTG45U	30/04/2018	SUTTONS HOMEBUSH NISSAN			D	 44,990.91					    3,636.63	D23 RETAIL BONUS	
2398676	D23	NAVDP4YA2ST	NSW	30517	Suttons Homebush Nissan	Dec 2016					30/01/2018	DTG45U	30/04/2018	SUTTONS HOMEBUSH NISSAN			D	 44,990.91					      909.09	D23 AGED BONUS - SERIES 2	
2398676	D23	NAVDP4YA2ST	NSW	30517	Suttons Homebush Nissan	Dec 2016					30/01/2018	DTG45U	30/04/2018	SUTTONS HOMEBUSH NISSAN			D	 44,990.91					      204.54	CVP JANUARY 2018	
2398676	D23	NAVDP4YA2ST	NSW	30517	Suttons Homebush Nissan	Dec 2016					30/01/2018	DTG45U	30/04/2018	SUTTONS HOMEBUSH NISSAN			D	 44,990.91					      218.18	CVP FEBRUARY 2018	
2398676	D23	NAVDP4YA2ST	NSW	30517	Suttons Homebush Nissan	Dec 2016					30/01/2018	DTG45U	30/04/2018	SUTTONS HOMEBUSH NISSAN			D	 44,990.91					      251.74	CVP MARCH 2018	
2403480	D23	NAVDP4YA2ST	NSW	30517	Suttons Homebush Nissan	Jan 2017	23/07/2017	MR MATTHEW IAN SHARMAN			31/07/2017	DPS92N		MR MATTHEW IAN SHARMAN			R	 44,990.91					    2,785.00	D23 SERIES 2 ORC	
2403480	D23	NAVDP4YA2ST	NSW	30517	Suttons Homebush Nissan	Jan 2017	23/07/2017	MR MATTHEW IAN SHARMAN			31/07/2017	DPS92N		MR MATTHEW IAN SHARMAN			R	 44,990.91					    2,272.72	D23  RETAIL BONUS	
2408956	D23	NAVDP4YA2ST	NSW	30517	Suttons Homebush Nissan	Feb 2017					21/07/2017	RM790	26/03/2018	SUTTONS HOMEBUSH NISSAN			D	 44,990.91					      483.00	D23 ORC	
2408956	D23	NAVDP4YA2ST	NSW	30517	Suttons Homebush Nissan	Feb 2017					21/07/2017	RM790	26/03/2018	SUTTONS HOMEBUSH NISSAN			D	 44,990.91					    3,636.63	D23 RETAIL BONUS	
2408956	D23	NAVDP4YA2ST	NSW	30517	Suttons Homebush Nissan	Feb 2017					21/07/2017	RM790	26/03/2018	SUTTONS HOMEBUSH NISSAN			D	 44,990.91					      909.09	D23 AGED BONUS - SERIES 2	
2408956	D23	NAVDP4YA2ST	NSW	30517	Suttons Homebush Nissan	Feb 2017					21/07/2017	RM790	26/03/2018	SUTTONS HOMEBUSH NISSAN			D	 44,990.91					      211.14	CVP JULY 2017	
2408956	D23	NAVDP4YA2ST	NSW	30517	Suttons Homebush Nissan	Feb 2017					21/07/2017	RM790	26/03/2018	SUTTONS HOMEBUSH NISSAN			D	 44,990.91					      233.76	CVP AUGUST 2017	
2408956	D23	NAVDP4YA2ST	NSW	30517	Suttons Homebush Nissan	Feb 2017					21/07/2017	RM790	26/03/2018	SUTTONS HOMEBUSH NISSAN			D	 44,990.91					      192.51	CVP SEPTEMBER 2017	
2408956	D23	NAVDP4YA2ST	NSW	30517	Suttons Homebush Nissan	Feb 2017					21/07/2017	RM790	26/03/2018	SUTTONS HOMEBUSH NISSAN			D	 44,990.91					      192.51	CVP OCTOBER 2017	
2408956	D23	NAVDP4YA2ST	NSW	30517	Suttons Homebush Nissan	Feb 2017					21/07/2017	RM790	26/03/2018	SUTTONS HOMEBUSH NISSAN			D	 44,990.91					      181.81	CVP NOVEMBER 2017	
2408956	D23	NAVDP4YA2ST	NSW	30517	Suttons Homebush Nissan	Feb 2017					21/07/2017	RM790	26/03/2018	SUTTONS HOMEBUSH NISSAN			D	 44,990.91					      187.01	CVP DECEMBER 2017	
2406120	D23	NAVDP4YA2ST	NSW	30517	Suttons Homebush Nissan	Feb 2017	17/08/2017	BREEN RESOURSCES  P/L			31/08/2017	DQN76N		BREEN RESOURSCES  P/L	Business Fleet - Small	5868	B	 44,990.91					    3,148.00	D23 SERIES 2 ORC	
2406120	D23	NAVDP4YA2ST	NSW	30517	Suttons Homebush Nissan	Feb 2017	17/08/2017	BREEN RESOURSCES  P/L			31/08/2017	DQN76N		BREEN RESOURSCES  P/L	Business Fleet - Small	5868	B	 44,990.91					    2,272.72	D23  RETAIL BONUS	
2406120	D23	NAVDP4YA2ST	NSW	30517	Suttons Homebush Nissan	Feb 2017	17/08/2017	BREEN RESOURSCES  P/L			31/08/2017	DQN76N		BREEN RESOURSCES  P/L	Business Fleet - Small	5868	B	 44,990.91					      800.00	Dealer Fleet Claim authorised 01/09/2017	
2406121	D23	NAVDP4YA2ST	NSW	30517	Suttons Homebush Nissan	Feb 2017	17/08/2017	BREEN RESOURSCES  P/L			31/08/2017	DQN76L		BREEN RESOURSCES  P/L	Business Fleet - Small	5868	B	 44,990.91					    3,067.00	D23 SERIES 2 ORC	
2406121	D23	NAVDP4YA2ST	NSW	30517	Suttons Homebush Nissan	Feb 2017	17/08/2017	BREEN RESOURSCES  P/L			31/08/2017	DQN76L		BREEN RESOURSCES  P/L	Business Fleet - Small	5868	B	 44,990.91					    2,272.72	D23  RETAIL BONUS	
2406121	D23	NAVDP4YA2ST	NSW	30517	Suttons Homebush Nissan	Feb 2017	17/08/2017	BREEN RESOURSCES  P/L			31/08/2017	DQN76L		BREEN RESOURSCES  P/L	Business Fleet - Small	5868	B	 44,990.91					      800.00	Dealer Fleet Claim authorised 01/09/2017	
2406129	D23	NAVDP4YA2ST	NSW	30517	Suttons Homebush Nissan	Feb 2017	16/08/2017	BREEN RESOURSCES  P/L			31/08/2017	TBA		BREEN RESOURSCES  P/L	Business Fleet - Small	5868	B	 44,990.91					    3,199.00	D23 SERIES 2 ORC	
2406129	D23	NAVDP4YA2ST	NSW	30517	Suttons Homebush Nissan	Feb 2017	16/08/2017	BREEN RESOURSCES  P/L			31/08/2017	TBA		BREEN RESOURSCES  P/L	Business Fleet - Small	5868	B	 44,990.91					    2,272.72	D23  RETAIL BONUS	
2406129	D23	NAVDP4YA2ST	NSW	30517	Suttons Homebush Nissan	Feb 2017	16/08/2017	BREEN RESOURSCES  P/L			31/08/2017	TBA		BREEN RESOURSCES  P/L	Business Fleet - Small	5868	B	 44,990.91					      800.00	Dealer Fleet Claim authorised 01/09/2017	
2426387	D23	NAVDP4YA2ST	NSW	30517	Suttons Homebush Nissan	Jun 2017	30/10/2017	M I INTERIORS PTY LTD			31/10/2017	DSG18W		M I INTERIORS PTY LTD	Business Fleet - Small	5868	B	 45,440.91					    3,031.00	D23 SERIES 2 ORC	
2426387	D23	NAVDP4YA2ST	NSW	30517	Suttons Homebush Nissan	Jun 2017	30/10/2017	M I INTERIORS PTY LTD			31/10/2017	DSG18W		M I INTERIORS PTY LTD	Business Fleet - Small	5868	B	 45,440.91					      750.00	OCT 17 D23 STRREETCH	
2426387	D23	NAVDP4YA2ST	NSW	30517	Suttons Homebush Nissan	Jun 2017	30/10/2017	M I INTERIORS PTY LTD			31/10/2017	DSG18W		M I INTERIORS PTY LTD	Business Fleet - Small	5868	B	 45,440.91					      800.00	Dealer Fleet Claim authorised 01/11/2017	
2444796	D23	NAVDP4YA2ST	NSW	30517	Suttons Homebush Nissan	Aug 2017	29/10/2017	M I INTERIORS PTY LTD			31/10/2017	DSG18V		M I INTERIORS PTY LTD	Business Fleet - Small	5868	B	 45,440.91					    3,031.00	D23 SERIES 2 ORC	
2444796	D23	NAVDP4YA2ST	NSW	30517	Suttons Homebush Nissan	Aug 2017	29/10/2017	M I INTERIORS PTY LTD			31/10/2017	DSG18V		M I INTERIORS PTY LTD	Business Fleet - Small	5868	B	 45,440.91					      750.00	OCT 17 D23 STRREETCH	
2444796	D23	NAVDP4YA2ST	NSW	30517	Suttons Homebush Nissan	Aug 2017	29/10/2017	M I INTERIORS PTY LTD			31/10/2017	DSG18V		M I INTERIORS PTY LTD	Business Fleet - Small	5868	B	 45,440.91					      800.00	Dealer Fleet Claim authorised 01/11/2017	
2444773	D23	NAVDP4YA2ST	NSW	30517	Suttons Homebush Nissan	Aug 2017	08/12/2017	DBG (AUSTRALIA) PTY LIMITED			21/12/2017	CN87YH		DBG (AUSTRALIA) PTY LIMITED	DBG (AUSTRALIA) PTY LIMITED	127952	N	 44,990.91					    3,110.00	NAVARA NATIONAL FLEET	
2444773	D23	NAVDP4YA2ST	NSW	30517	Suttons Homebush Nissan	Aug 2017	08/12/2017	DBG (AUSTRALIA) PTY LIMITED			21/12/2017	CN87YH		DBG (AUSTRALIA) PTY LIMITED	DBG (AUSTRALIA) PTY LIMITED	127952	N	 44,990.91					    4,000.00	Dealer Fleet Claim authorised 22/12/2017	
2444794	D23	NAVDP4YA2ST	NSW	30517	Suttons Homebush Nissan	Aug 2017	24/12/2017	TAOYI PAINTING PTY LTD			27/12/2017	DSS35E		TAOYI PAINTING PTY LTD	Business Fleet - Small	5868	B	 45,440.91					    2,877.00	D23 SERIES 2 ORC	
2444794	D23	NAVDP4YA2ST	NSW	30517	Suttons Homebush Nissan	Aug 2017	24/12/2017	TAOYI PAINTING PTY LTD			27/12/2017	DSS35E		TAOYI PAINTING PTY LTD	Business Fleet - Small	5868	B	 45,440.91					    3,636.63	D23 RETAIL BONUS 1	
2444794	D23	NAVDP4YA2ST	NSW	30517	Suttons Homebush Nissan	Aug 2017	24/12/2017	TAOYI PAINTING PTY LTD			27/12/2017	DSS35E		TAOYI PAINTING PTY LTD	Business Fleet - Small	5868	B	 45,440.91					      454.54	BOXING DAY SALE	
2444794	D23	NAVDP4YA2ST	NSW	30517	Suttons Homebush Nissan	Aug 2017	24/12/2017	TAOYI PAINTING PTY LTD			27/12/2017	DSS35E		TAOYI PAINTING PTY LTD	Business Fleet - Small	5868	B	 45,440.91					      800.00	Dealer Fleet Claim authorised 28/12/2017	
2448504	D23	NAVDP4YA2ST	NSW	30517	Suttons Homebush Nissan	Sep 2017	28/11/2017	DASFLEET GOVERNMENT SALES			29/11/2017	NOREGO		DASFLEET GOVERNMENT SALES	Dasfleet Government Sales	66700	C	 44,990.91					      454.55	NOV 17 CLOSING BONUS	
2448506	D23	NAVDP4YA2ST	NSW	30517	Suttons Homebush Nissan	Sep 2017	20/12/2017	ABCO PRODUCTS PTY LTD			21/12/2017	CN86YH		ABCO PRODUCTS PTY LTD	Business Fleet - Small	5868	B	 44,990.91					    2,625.00	D23 SERIES 2 ORC	
2448506	D23	NAVDP4YA2ST	NSW	30517	Suttons Homebush Nissan	Sep 2017	20/12/2017	ABCO PRODUCTS PTY LTD			21/12/2017	CN86YH		ABCO PRODUCTS PTY LTD	Business Fleet - Small	5868	B	 44,990.91					    3,636.63	D23 RETAIL BONUS 1	
2448506	D23	NAVDP4YA2ST	NSW	30517	Suttons Homebush Nissan	Sep 2017	20/12/2017	ABCO PRODUCTS PTY LTD			21/12/2017	CN86YH		ABCO PRODUCTS PTY LTD	Business Fleet - Small	5868	B	 44,990.91					      800.00	Dealer Fleet Claim authorised 22/12/2017	
2454121	D23	NAVDP4YA2ST	NSW	30517	Suttons Homebush Nissan	Oct 2017	07/01/2018	MR CULLUM GALLAGHER			31/01/2018	DTG45J		MR CULLUM GALLAGHER			R	 45,440.91					    2,764.00	D23 SERIES 2 ORC	
2454121	D23	NAVDP4YA2ST	NSW	30517	Suttons Homebush Nissan	Oct 2017	07/01/2018	MR CULLUM GALLAGHER			31/01/2018	DTG45J		MR CULLUM GALLAGHER			R	 45,440.91					    3,636.63	D23 RETAIL BONUS 1	
2398727	D23	NAVDP4YA2STNS	NSW	30517	Suttons Homebush Nissan	Dec 2016	09/10/2017	MR DANIEL LE			19/10/2017	DQW91J		MR DANIEL LE			R	 45,900.00					    2,983.00	D23 SERIES 2 ORC	
2398727	D23	NAVDP4YA2STNS	NSW	30517	Suttons Homebush Nissan	Dec 2016	09/10/2017	MR DANIEL LE			19/10/2017	DQW91J		MR DANIEL LE			R	 45,900.00					    1,818.18	D23 RETAIL BONUS	
2398727	D23	NAVDP4YA2STNS	NSW	30517	Suttons Homebush Nissan	Dec 2016	09/10/2017	MR DANIEL LE			19/10/2017	DQW91J		MR DANIEL LE			R	 45,900.00					      909.09	D23 AGED BONUS - SERIES 2	
2398727	D23	NAVDP4YA2STNS	NSW	30517	Suttons Homebush Nissan	Dec 2016	09/10/2017	MR DANIEL LE			19/10/2017	DQW91J		MR DANIEL LE			R	 45,900.00					      750.00	OCT 17 D23 STRREETCH	
2416871	D23	NAVDP4YA2STNS	NSW	30517	Suttons Homebush Nissan	Mar 2017	19/11/2017	MR ANDREW CAPPELLO			30/11/2017	TBA		MR ANDREW CAPPELLO	Business Fleet - Small	5868	B	 46,350.00					    2,079.65	D23 SERIES 2 ORC	
2416871	D23	NAVDP4YA2STNS	NSW	30517	Suttons Homebush Nissan	Mar 2017	19/11/2017	MR ANDREW CAPPELLO			30/11/2017	TBA		MR ANDREW CAPPELLO	Business Fleet - Small	5868	B	 46,350.00					    1,818.18	D23 RETAIL BONUS	
2416871	D23	NAVDP4YA2STNS	NSW	30517	Suttons Homebush Nissan	Mar 2017	19/11/2017	MR ANDREW CAPPELLO			30/11/2017	TBA		MR ANDREW CAPPELLO	Business Fleet - Small	5868	B	 46,350.00					      454.55	NOV 17 CLOSING BONUS	
2416871	D23	NAVDP4YA2STNS	NSW	30517	Suttons Homebush Nissan	Mar 2017	19/11/2017	MR ANDREW CAPPELLO			30/11/2017	TBA		MR ANDREW CAPPELLO	Business Fleet - Small	5868	B	 46,350.00					      800.00	Dealer Fleet Claim authorised 01/12/2017	
2416601	D23	NAVDP4YA2STNS	NSW	30517	Suttons Homebush Nissan	Mar 2017	10/09/2017	MR DEAN IRWIN			25/09/2017	CR26AA		MR DEAN IRWIN	Business Fleet - Small	5868	B	 46,350.00					    2,860.00	D23 SERIES 2 ORC	
2416601	D23	NAVDP4YA2STNS	NSW	30517	Suttons Homebush Nissan	Mar 2017	10/09/2017	MR DEAN IRWIN			25/09/2017	CR26AA		MR DEAN IRWIN	Business Fleet - Small	5868	B	 46,350.00					    1,818.18	D23 N-SPORT RETAIL BONUS	
2416601	D23	NAVDP4YA2STNS	NSW	30517	Suttons Homebush Nissan	Mar 2017	10/09/2017	MR DEAN IRWIN			25/09/2017	CR26AA		MR DEAN IRWIN	Business Fleet - Small	5868	B	 46,350.00					      363.63	SEP 17 FAST START	
2416601	D23	NAVDP4YA2STNS	NSW	30517	Suttons Homebush Nissan	Mar 2017	10/09/2017	MR DEAN IRWIN			25/09/2017	CR26AA		MR DEAN IRWIN	Business Fleet - Small	5868	B	 46,350.00					      800.00	Dealer Fleet Claim authorised 26/09/2017	
2437207	D23	NAVDP4YA2STNS	NSW	30517	Suttons Homebush Nissan	Jun 2017	30/07/2017	ST BASIL'S HOMES			31/07/2017	DQC61G		ST BASIL'S HOMES	ST BASIL'S HOMES	124151	Y	 45,900.00					    2,500.00	D23 DC 4X4 NATIONAL FLEET BONUS	
2437207	D23	NAVDP4YA2STNS	NSW	30517	Suttons Homebush Nissan	Jun 2017	30/07/2017	ST BASIL'S HOMES			31/07/2017	DQC61G		ST BASIL'S HOMES	ST BASIL'S HOMES	124151	Y	 45,900.00					    3,950.00	Dealer Fleet Claim authorised 01/08/2017	
2437205	D23	NAVDP4YA2STNS	NSW	30517	Suttons Homebush Nissan	Jun 2017					31/07/2017	DSS35Y	19/09/2017	MR CHEOLWOO JEONG	Business Fleet - Small	5868	B	 45,900.00					    2,000.00	D23 SERIES 2 ORC	
2437205	D23	NAVDP4YA2STNS	NSW	30517	Suttons Homebush Nissan	Jun 2017					31/07/2017	DSS35Y	19/09/2017	MR CHEOLWOO JEONG	Business Fleet - Small	5868	B	 45,900.00					    2,272.73	D23  RETAIL BONUS	
2437205	D23	NAVDP4YA2STNS	NSW	30517	Suttons Homebush Nissan	Jun 2017					31/07/2017	DSS35Y	19/09/2017	MR CHEOLWOO JEONG	Business Fleet - Small	5868	B	 45,900.00					      211.14	CVP JULY 2017	
2437205	D23	NAVDP4YA2STNS	NSW	30517	Suttons Homebush Nissan	Jun 2017					31/07/2017	DSS35Y	19/09/2017	MR CHEOLWOO JEONG	Business Fleet - Small	5868	B	 45,900.00					      233.76	CVP AUGUST 2017	
2437205	D23	NAVDP4YA2STNS	NSW	30517	Suttons Homebush Nissan	Jun 2017					31/07/2017	DSS35Y	19/09/2017	MR CHEOLWOO JEONG	Business Fleet - Small	5868	B	 45,900.00					      800.00	Dealer Fleet Claim authorised 20/09/2017	
2437206	D23	NAVDP4YA2STNS	NSW	30517	Suttons Homebush Nissan	Jun 2017	30/07/2017	ST BASIL'S HOMES			31/07/2017	DQC61E		ST BASIL'S HOMES	ST BASIL'S HOMES	124151	Y	 45,900.00					    2,500.00	D23 DC 4X4 NATIONAL FLEET BONUS	
2437206	D23	NAVDP4YA2STNS	NSW	30517	Suttons Homebush Nissan	Jun 2017	30/07/2017	ST BASIL'S HOMES			31/07/2017	DQC61E		ST BASIL'S HOMES	ST BASIL'S HOMES	124151	Y	 45,900.00					    3,950.00	Dealer Fleet Claim authorised 01/08/2017	
2437199	D23	NAVDP4YA2STNS	NSW	30517	Suttons Homebush Nissan	Jun 2017	04/09/2017	PBM CONSTRUCTION P/L			18/09/2017	DQN77F		PBM CONSTRUCTION P/L	Business Fleet - Small	5868	B	 45,900.00					    3,043.00	D23 SERIES 2 ORC	
2437199	D23	NAVDP4YA2STNS	NSW	30517	Suttons Homebush Nissan	Jun 2017	04/09/2017	PBM CONSTRUCTION P/L			18/09/2017	DQN77F		PBM CONSTRUCTION P/L	Business Fleet - Small	5868	B	 45,900.00					    2,272.73	D23  RETAIL BONUS	
2437199	D23	NAVDP4YA2STNS	NSW	30517	Suttons Homebush Nissan	Jun 2017	04/09/2017	PBM CONSTRUCTION P/L			18/09/2017	DQN77F		PBM CONSTRUCTION P/L	Business Fleet - Small	5868	B	 45,900.00					      363.63	SEP 17 FAST START	
2437199	D23	NAVDP4YA2STNS	NSW	30517	Suttons Homebush Nissan	Jun 2017	04/09/2017	PBM CONSTRUCTION P/L			18/09/2017	DQN77F		PBM CONSTRUCTION P/L	Business Fleet - Small	5868	B	 45,900.00					      800.00	Dealer Fleet Claim authorised 19/09/2017	
2437216	D23	NAVDP4YA2STNS	NSW	30517	Suttons Homebush Nissan	Jun 2017	15/08/2017	MR ANGELO SAM FERLAUTO			21/08/2017	DQC61R		MR ANGELO SAM FERLAUTO			R	 45,900.00					    2,809.00	D23 SERIES 2 ORC	
2437216	D23	NAVDP4YA2STNS	NSW	30517	Suttons Homebush Nissan	Jun 2017	15/08/2017	MR ANGELO SAM FERLAUTO			21/08/2017	DQC61R		MR ANGELO SAM FERLAUTO			R	 45,900.00					    2,272.72	D23  RETAIL BONUS	
2412597	D23	NAVDP4YA2STX	NSW	30517	Suttons Homebush Nissan	Feb 2017	04/07/2017	MR PATRICK PATTERSON			17/07/2017	DNH77G		MR PATRICK PATTERSON			R	 49,536.36					    3,202.00	D23 SERIES 2 ORC	
2412597	D23	NAVDP4YA2STX	NSW	30517	Suttons Homebush Nissan	Feb 2017	04/07/2017	MR PATRICK PATTERSON			17/07/2017	DNH77G		MR PATRICK PATTERSON			R	 49,536.36					    2,272.72	D23  RETAIL BONUS	
2408960	D23	NAVDP4YA2STX	NSW	30517	Suttons Homebush Nissan	Mar 2017	27/04/2017	CUSTOM SERVICE LEASING			31/07/2017	CM53JL		CUSTOM SERVICE LEASING	CUSTOM SERVICE LEASING PTY LTD	116895	N	 49,536.36					    2,700.00	D23 DC 4X4 NATIONAL FLEET BONUS	
2408960	D23	NAVDP4YA2STX	NSW	30517	Suttons Homebush Nissan	Mar 2017	27/04/2017	CUSTOM SERVICE LEASING			31/07/2017	CM53JL		CUSTOM SERVICE LEASING	CUSTOM SERVICE LEASING PTY LTD	116895	N	 49,536.36					    1,800.00	Dealer Fleet Claim authorised 01/08/2017	
2419459	D23	NAVDP4YA2STX	NSW	30517	Suttons Homebush Nissan	Jun 2017	26/07/2017	SEBOC PTY LTD			31/07/2017	DPS93A		SEBOC PTY LTD	Business Fleet - Small	5868	B	 49,986.36					    3,379.00	D23 SERIES 2 ORC	
2419459	D23	NAVDP4YA2STX	NSW	30517	Suttons Homebush Nissan	Jun 2017	26/07/2017	SEBOC PTY LTD			31/07/2017	DPS93A		SEBOC PTY LTD	Business Fleet - Small	5868	B	 49,986.36					    2,272.72	D23  RETAIL BONUS	
2419459	D23	NAVDP4YA2STX	NSW	30517	Suttons Homebush Nissan	Jun 2017	26/07/2017	SEBOC PTY LTD			31/07/2017	DPS93A		SEBOC PTY LTD	Business Fleet - Small	5868	B	 49,986.36					      900.00	Dealer Fleet Claim authorised 01/08/2017	
2433526	D23	NAVDP4YA2STX	NSW	30517	Suttons Homebush Nissan	Aug 2017	04/10/2017	MR VINCENZO SCARCELLA	P-201710050		09/10/2017	DQW90X		MR VINCENZO SCARCELLA	Business Fleet - Small	5868	B	 49,986.36					    3,115.00	D23 SERIES 2 ORC	
2433526	D23	NAVDP4YA2STX	NSW	30517	Suttons Homebush Nissan	Aug 2017	04/10/2017	MR VINCENZO SCARCELLA	P-201710050		09/10/2017	DQW90X		MR VINCENZO SCARCELLA	Business Fleet - Small	5868	B	 49,986.36					      750.00	OCT 17 D23 STRREETCH	
2433526	D23	NAVDP4YA2STX	NSW	30517	Suttons Homebush Nissan	Aug 2017	04/10/2017	MR VINCENZO SCARCELLA	P-201710050		09/10/2017	DQW90X		MR VINCENZO SCARCELLA	Business Fleet - Small	5868	B	 49,986.36					      900.00	Dealer Fleet Claim authorised 10/10/2017	
2444837	D23	NAVDP4YA2STX	NSW	30517	Suttons Homebush Nissan	Aug 2017	30/09/2017	MR THEO TSAKONAS			30/09/2017	DQW90U	01/11/2017	MR THEO TSAKONAS	Nissan Dealership Employee	105841	E	 49,986.36					      192.51	CVP OCTOBER 2017	
2444837	D23	NAVDP4YA2STX	NSW	30517	Suttons Homebush Nissan	Aug 2017	30/09/2017	MR THEO TSAKONAS			30/09/2017	DQW90U	01/11/2017	MR THEO TSAKONAS	Nissan Dealership Employee	105841	E	 49,986.36					    2,300.00	Dealer Fleet Claim authorised 02/11/2017	
2444865	D23	NAVDP4YA2STX	NSW	30517	Suttons Homebush Nissan	Aug 2017	19/10/2017	MR NICOLAS VALELIS	P-201710141		23/10/2017	DQW91S		MR NICOLAS VALELIS	Business Fleet - Small	5868	B	 49,536.36					    3,271.00	D23 SERIES 2 ORC	
2444865	D23	NAVDP4YA2STX	NSW	30517	Suttons Homebush Nissan	Aug 2017	19/10/2017	MR NICOLAS VALELIS	P-201710141		23/10/2017	DQW91S		MR NICOLAS VALELIS	Business Fleet - Small	5868	B	 49,536.36					      750.00	OCT 17 D23 STRREETCH	
2444865	D23	NAVDP4YA2STX	NSW	30517	Suttons Homebush Nissan	Aug 2017	19/10/2017	MR NICOLAS VALELIS	P-201710141		23/10/2017	DQW91S		MR NICOLAS VALELIS	Business Fleet - Small	5868	B	 49,536.36					      900.00	Dealer Fleet Claim authorised 24/10/2017	
2448520	D23	NAVDP4YA2STX	NSW	30517	Suttons Homebush Nissan	Sep 2017					31/01/2018	DTG45X	03/04/2018	SUTTONS HOMEBUSH NISSAN			D	 49,986.36					    4,545.45	D23 RETAIL BONUS 1	
2448520	D23	NAVDP4YA2STX	NSW	30517	Suttons Homebush Nissan	Sep 2017					31/01/2018	DTG45X	03/04/2018	SUTTONS HOMEBUSH NISSAN			D	 49,986.36					    2,920.00	D23 ORC	
2448520	D23	NAVDP4YA2STX	NSW	30517	Suttons Homebush Nissan	Sep 2017					31/01/2018	DTG45X	03/04/2018	SUTTONS HOMEBUSH NISSAN			D	 49,986.36					      909.09	D23 S2 AGED COMPLIANCE	
2448520	D23	NAVDP4YA2STX	NSW	30517	Suttons Homebush Nissan	Sep 2017					31/01/2018	DTG45X	03/04/2018	SUTTONS HOMEBUSH NISSAN			D	 49,986.36					      204.54	CVP JANUARY 2018	
2448520	D23	NAVDP4YA2STX	NSW	30517	Suttons Homebush Nissan	Sep 2017					31/01/2018	DTG45X	03/04/2018	SUTTONS HOMEBUSH NISSAN			D	 49,986.36					      218.18	CVP FEBRUARY 2018	
2448520	D23	NAVDP4YA2STX	NSW	30517	Suttons Homebush Nissan	Sep 2017					31/01/2018	DTG45X	03/04/2018	SUTTONS HOMEBUSH NISSAN			D	 49,986.36					      251.74	CVP MARCH 2018	
2448525	D23	NAVDP4YA2STX	NSW	30517	Suttons Homebush Nissan	Sep 2017	18/10/2017	WACKER NEUSON PTY LTD			30/11/2017	CN79YH		WACKER NEUSON PTY LTD	WACKER NEUSON PTY LTD	130930	N	 49,536.36					    2,950.00	NAVARA NATIONAL FLEET	
2448525	D23	NAVDP4YA2STX	NSW	30517	Suttons Homebush Nissan	Sep 2017	18/10/2017	WACKER NEUSON PTY LTD			30/11/2017	CN79YH		WACKER NEUSON PTY LTD	WACKER NEUSON PTY LTD	130930	N	 49,536.36					    1,800.00	Dealer Fleet Claim authorised 01/12/2017	
2448526	D23	NAVDP4YA2STX	NSW	30517	Suttons Homebush Nissan	Sep 2017	14/01/2018	MR ANDREW DSOUZA			22/01/2018	DTE01J		MR ANDREW DSOUZA			R	 49,536.36					    2,734.00	D23 SERIES 2 ORC	
2448526	D23	NAVDP4YA2STX	NSW	30517	Suttons Homebush Nissan	Sep 2017	14/01/2018	MR ANDREW DSOUZA			22/01/2018	DTE01J		MR ANDREW DSOUZA			R	 49,536.36					    4,545.45	D23 RETAIL BONUS 1	
2448527	D23	NAVDP4YA2STX	NSW	30517	Suttons Homebush Nissan	Sep 2017	28/11/2017	SYDNEY CITY MECHANICAL SERVICE			30/11/2017	TBA		SYDNEY CITY MECHANICAL SERVICE	Sydney City Mechanical Services Pty Ltd	145204	N	 49,536.36					    2,950.00	NAVARA NATIONAL FLEET	
2448527	D23	NAVDP4YA2STX	NSW	30517	Suttons Homebush Nissan	Sep 2017	28/11/2017	SYDNEY CITY MECHANICAL SERVICE			30/11/2017	TBA		SYDNEY CITY MECHANICAL SERVICE	Sydney City Mechanical Services Pty Ltd	145204	N	 49,536.36					      454.55	NOV 17 CLOSING BONUS	
2448527	D23	NAVDP4YA2STX	NSW	30517	Suttons Homebush Nissan	Sep 2017	28/11/2017	SYDNEY CITY MECHANICAL SERVICE			30/11/2017	TBA		SYDNEY CITY MECHANICAL SERVICE	Sydney City Mechanical Services Pty Ltd	145204	N	 49,536.36					    1,800.00	Dealer Fleet Claim authorised 01/12/2017	
2419513	D23	NAVDP4YA2STX	NSW	30517	Suttons Homebush Nissan	Sep 2017	06/02/2018	MR VINCENZO SQUADRITO			28/02/2018	DTX17T		MR VINCENZO SQUADRITO	Business Fleet - Small	5868	B	 49,536.36					    2,654.00	D23 ORC	
2419513	D23	NAVDP4YA2STX	NSW	30517	Suttons Homebush Nissan	Sep 2017	06/02/2018	MR VINCENZO SQUADRITO			28/02/2018	DTX17T		MR VINCENZO SQUADRITO	Business Fleet - Small	5868	B	 49,536.36					    4,545.45	D23 RETAIL BONUS	
2419513	D23	NAVDP4YA2STX	NSW	30517	Suttons Homebush Nissan	Sep 2017	06/02/2018	MR VINCENZO SQUADRITO			28/02/2018	DTX17T		MR VINCENZO SQUADRITO	Business Fleet - Small	5868	B	 49,536.36					      909.09	D23 AGED BONUS - SERIES 2	
2419513	D23	NAVDP4YA2STX	NSW	30517	Suttons Homebush Nissan	Sep 2017	06/02/2018	MR VINCENZO SQUADRITO			28/02/2018	DTX17T		MR VINCENZO SQUADRITO	Business Fleet - Small	5868	B	 49,536.36					      900.00	Dealer Fleet Claim authorised 01/03/2018	
2454123	D23	NAVDP4YA2STX	NSW	30517	Suttons Homebush Nissan	Oct 2017	14/02/2018	MR PERCY YADER GARCIA CASTILLO			21/02/2018	DTX17N		MR PERCY YADER GARCIA CASTILLO	Business Fleet - Small	5868	B	 49,986.36					    2,965.00	D23 ORC	
2454123	D23	NAVDP4YA2STX	NSW	30517	Suttons Homebush Nissan	Oct 2017	14/02/2018	MR PERCY YADER GARCIA CASTILLO			21/02/2018	DTX17N		MR PERCY YADER GARCIA CASTILLO	Business Fleet - Small	5868	B	 49,986.36					      681.81	NISSAN LOYALTY PROGRAM	
2454123	D23	NAVDP4YA2STX	NSW	30517	Suttons Homebush Nissan	Oct 2017	14/02/2018	MR PERCY YADER GARCIA CASTILLO			21/02/2018	DTX17N		MR PERCY YADER GARCIA CASTILLO	Business Fleet - Small	5868	B	 49,986.36					    4,545.45	D23 RETAIL BONUS	
2454123	D23	NAVDP4YA2STX	NSW	30517	Suttons Homebush Nissan	Oct 2017	14/02/2018	MR PERCY YADER GARCIA CASTILLO			21/02/2018	DTX17N		MR PERCY YADER GARCIA CASTILLO	Business Fleet - Small	5868	B	 49,986.36					      909.09	D23 AGED BONUS - SERIES 2	
2454123	D23	NAVDP4YA2STX	NSW	30517	Suttons Homebush Nissan	Oct 2017	14/02/2018	MR PERCY YADER GARCIA CASTILLO			21/02/2018	DTX17N		MR PERCY YADER GARCIA CASTILLO	Business Fleet - Small	5868	B	 49,986.36					      900.00	Dealer Fleet Claim authorised 22/02/2018	
2454124	D23	NAVDP4YA2STX	NSW	30517	Suttons Homebush Nissan	Oct 2017	28/01/2018	MAX QUALITY SERVICES P/L			29/01/2018	DTG45B		MAX QUALITY SERVICES P/L	Business Fleet - Small	5868	B	 49,536.36					    2,934.00	D23 SERIES 2 ORC	
2454124	D23	NAVDP4YA2STX	NSW	30517	Suttons Homebush Nissan	Oct 2017	28/01/2018	MAX QUALITY SERVICES P/L			29/01/2018	DTG45B		MAX QUALITY SERVICES P/L	Business Fleet - Small	5868	B	 49,536.36					    4,545.45	D23 RETAIL BONUS 1	
2454124	D23	NAVDP4YA2STX	NSW	30517	Suttons Homebush Nissan	Oct 2017	28/01/2018	MAX QUALITY SERVICES P/L			29/01/2018	DTG45B		MAX QUALITY SERVICES P/L	Business Fleet - Small	5868	B	 49,536.36					      900.00	Dealer Fleet Claim authorised 30/01/2018	
2462035	D23	NAVDP4YA2STX	NSW	30517	Suttons Homebush Nissan	Nov 2017	18/02/2018	LINK SOLUTIONS PTY LTD			26/02/2018	DTX17S		LINK SOLUTIONS PTY LTD	Business Fleet - Small	5868	B	 49,986.36					    2,827.00	D23 ORC	
2462035	D23	NAVDP4YA2STX	NSW	30517	Suttons Homebush Nissan	Nov 2017	18/02/2018	LINK SOLUTIONS PTY LTD			26/02/2018	DTX17S		LINK SOLUTIONS PTY LTD	Business Fleet - Small	5868	B	 49,986.36					    4,545.45	D23 RETAIL BONUS	
2462035	D23	NAVDP4YA2STX	NSW	30517	Suttons Homebush Nissan	Nov 2017	18/02/2018	LINK SOLUTIONS PTY LTD			26/02/2018	DTX17S		LINK SOLUTIONS PTY LTD	Business Fleet - Small	5868	B	 49,986.36					      900.00	Dealer Fleet Claim authorised 27/02/2018	
2423029	D23	NAVDP4YA2STXB	NSW	30517	Suttons Homebush Nissan	May 2017	10/09/2017	CAPITAL K (AUST) PTY LTD			25/09/2017	DTE01B		CAPITAL K (AUST) PTY LTD	Business Fleet - Small	5868	B	 52,259.09					    3,276.76	D23 SERIES 2 ORC	
2423029	D23	NAVDP4YA2STXB	NSW	30517	Suttons Homebush Nissan	May 2017	10/09/2017	CAPITAL K (AUST) PTY LTD			25/09/2017	DTE01B		CAPITAL K (AUST) PTY LTD	Business Fleet - Small	5868	B	 52,259.09					    2,090.91	D23 RETAIL BONUS	
2423029	D23	NAVDP4YA2STXB	NSW	30517	Suttons Homebush Nissan	May 2017	10/09/2017	CAPITAL K (AUST) PTY LTD			25/09/2017	DTE01B		CAPITAL K (AUST) PTY LTD	Business Fleet - Small	5868	B	 52,259.09					      363.63	SEP 17 FAST START	
2423029	D23	NAVDP4YA2STXB	NSW	30517	Suttons Homebush Nissan	May 2017	10/09/2017	CAPITAL K (AUST) PTY LTD			25/09/2017	DTE01B		CAPITAL K (AUST) PTY LTD	Business Fleet - Small	5868	B	 52,259.09					      900.00	Dealer Fleet Claim authorised 26/09/2017	
2423039	D23	NAVDP4YA2STXB	NSW	30517	Suttons Homebush Nissan	May 2017	22/11/2017	MR MOFFID FAREED SADA			30/11/2017	DSG19T		MR MOFFID FAREED SADA			R	 51,809.09					    1,671.32	D23 SERIES 2 ORC	
2423039	D23	NAVDP4YA2STXB	NSW	30517	Suttons Homebush Nissan	May 2017	22/11/2017	MR MOFFID FAREED SADA			30/11/2017	DSG19T		MR MOFFID FAREED SADA			R	 51,809.09					    2,090.90	D23 RETAIL BONUS	
2423039	D23	NAVDP4YA2STXB	NSW	30517	Suttons Homebush Nissan	May 2017	22/11/2017	MR MOFFID FAREED SADA			30/11/2017	DSG19T		MR MOFFID FAREED SADA			R	 51,809.09					      909.09	D23 BLACK EDITION RETAIL BONUS	
2423030	D23	NAVDP4YA2STXB	NSW	30517	Suttons Homebush Nissan	May 2017	21/11/2017	MR ZACHARY ZACHARIAS			30/11/2017	DSS35M		MR ZACHARY ZACHARIAS			R	 52,259.09					    3,107.46	D23 SERIES 2 ORC	
2423030	D23	NAVDP4YA2STXB	NSW	30517	Suttons Homebush Nissan	May 2017	21/11/2017	MR ZACHARY ZACHARIAS			30/11/2017	DSS35M		MR ZACHARY ZACHARIAS			R	 52,259.09					    2,090.90	D23 RETAIL BONUS	
2423030	D23	NAVDP4YA2STXB	NSW	30517	Suttons Homebush Nissan	May 2017	21/11/2017	MR ZACHARY ZACHARIAS			30/11/2017	DSS35M		MR ZACHARY ZACHARIAS			R	 52,259.09					      909.09	D23 BLACK EDITION RETAIL BONUS	
2423030	D23	NAVDP4YA2STXB	NSW	30517	Suttons Homebush Nissan	May 2017	21/11/2017	MR ZACHARY ZACHARIAS			30/11/2017	DSS35M		MR ZACHARY ZACHARIAS			R	 52,259.09					      454.55	NOV 17 CLOSING BONUS	
2423027	D23	NAVDP4YA2STXB	NSW	30517	Suttons Homebush Nissan	May 2017	10/09/2017	CAPITAL K (AUST) PTY LTD			25/09/2017	DSG19K		CAPITAL K (AUST) PTY LTD	Business Fleet - Small	5868	B	 52,259.09					    3,276.76	D23 SERIES 2 ORC	
2423027	D23	NAVDP4YA2STXB	NSW	30517	Suttons Homebush Nissan	May 2017	10/09/2017	CAPITAL K (AUST) PTY LTD			25/09/2017	DSG19K		CAPITAL K (AUST) PTY LTD	Business Fleet - Small	5868	B	 52,259.09					    2,090.91	D23 RETAIL BONUS	
2423027	D23	NAVDP4YA2STXB	NSW	30517	Suttons Homebush Nissan	May 2017	10/09/2017	CAPITAL K (AUST) PTY LTD			25/09/2017	DSG19K		CAPITAL K (AUST) PTY LTD	Business Fleet - Small	5868	B	 52,259.09					      363.63	SEP 17 FAST START	
2423027	D23	NAVDP4YA2STXB	NSW	30517	Suttons Homebush Nissan	May 2017	10/09/2017	CAPITAL K (AUST) PTY LTD			25/09/2017	DSG19K		CAPITAL K (AUST) PTY LTD	Business Fleet - Small	5868	B	 52,259.09					      900.00	Dealer Fleet Claim authorised 26/09/2017	
2437228	D23	NAVDP4YA2STXB	NSW	30517	Suttons Homebush Nissan	Jun 2017	10/09/2017	CAPITAL K (AUST) PTY LTD			25/09/2017	DSS34U		CAPITAL K (AUST) PTY LTD	Business Fleet - Small	5868	B	 51,809.09					    3,251.76	D23 SERIES 2 ORC	
2437228	D23	NAVDP4YA2STXB	NSW	30517	Suttons Homebush Nissan	Jun 2017	10/09/2017	CAPITAL K (AUST) PTY LTD			25/09/2017	DSS34U		CAPITAL K (AUST) PTY LTD	Business Fleet - Small	5868	B	 51,809.09					    2,090.91	D23 RETAIL BONUS	
2437228	D23	NAVDP4YA2STXB	NSW	30517	Suttons Homebush Nissan	Jun 2017	10/09/2017	CAPITAL K (AUST) PTY LTD			25/09/2017	DSS34U		CAPITAL K (AUST) PTY LTD	Business Fleet - Small	5868	B	 51,809.09					      363.63	SEP 17 FAST START	
2437228	D23	NAVDP4YA2STXB	NSW	30517	Suttons Homebush Nissan	Jun 2017	10/09/2017	CAPITAL K (AUST) PTY LTD			25/09/2017	DSS34U		CAPITAL K (AUST) PTY LTD	Business Fleet - Small	5868	B	 51,809.09					      900.00	Dealer Fleet Claim authorised 26/09/2017	
2437253	D23	NAVDP4YA2STXB	NSW	30517	Suttons Homebush Nissan	Jun 2017	31/08/2017	CAPITAL K (AUST) PTY LTD			31/08/2017	DSS34B		CAPITAL K (AUST) PTY LTD	Business Fleet - Small	5868	B	 51,809.09					    3,430.00	D23 SERIES 2 ORC	
2437253	D23	NAVDP4YA2STXB	NSW	30517	Suttons Homebush Nissan	Jun 2017	31/08/2017	CAPITAL K (AUST) PTY LTD			31/08/2017	DSS34B		CAPITAL K (AUST) PTY LTD	Business Fleet - Small	5868	B	 51,809.09					    2,090.90	D23  RETAIL BONUS	
2437253	D23	NAVDP4YA2STXB	NSW	30517	Suttons Homebush Nissan	Jun 2017	31/08/2017	CAPITAL K (AUST) PTY LTD			31/08/2017	DSS34B		CAPITAL K (AUST) PTY LTD	Business Fleet - Small	5868	B	 51,809.09					      900.00	Dealer Fleet Claim authorised 01/09/2017	
2437252	D23	NAVDP4YA2STXB	NSW	30517	Suttons Homebush Nissan	Jun 2017	19/11/2017	MR PETER EADIE			30/11/2017	DSG19Z		MR PETER EADIE			R	 51,809.09					    3,010.00	D23 SERIES 2 ORC	
2437252	D23	NAVDP4YA2STXB	NSW	30517	Suttons Homebush Nissan	Jun 2017	19/11/2017	MR PETER EADIE			30/11/2017	DSG19Z		MR PETER EADIE			R	 51,809.09					    2,090.90	D23 RETAIL BONUS	
2437252	D23	NAVDP4YA2STXB	NSW	30517	Suttons Homebush Nissan	Jun 2017	19/11/2017	MR PETER EADIE			30/11/2017	DSG19Z		MR PETER EADIE			R	 51,809.09					      909.09	D23 BLACK EDITION RETAIL BONUS	
2437252	D23	NAVDP4YA2STXB	NSW	30517	Suttons Homebush Nissan	Jun 2017	19/11/2017	MR PETER EADIE			30/11/2017	DSG19Z		MR PETER EADIE			R	 51,809.09					      454.55	NOV 17 CLOSING BONUS	
2437230	D23	NAVDP4YA2STXB	NSW	30517	Suttons Homebush Nissan	Jun 2017	24/09/2017	CAPITAL K (AUST) PTY LTD			25/09/2017	DTE01A		CAPITAL K (AUST) PTY LTD	Business Fleet - Small	5868	B	 51,809.09					    3,251.76	D23 SERIES 2 ORC	
2437230	D23	NAVDP4YA2STXB	NSW	30517	Suttons Homebush Nissan	Jun 2017	24/09/2017	CAPITAL K (AUST) PTY LTD			25/09/2017	DTE01A		CAPITAL K (AUST) PTY LTD	Business Fleet - Small	5868	B	 51,809.09					    2,090.91	D23 RETAIL BONUS	
2437230	D23	NAVDP4YA2STXB	NSW	30517	Suttons Homebush Nissan	Jun 2017	24/09/2017	CAPITAL K (AUST) PTY LTD			25/09/2017	DTE01A		CAPITAL K (AUST) PTY LTD	Business Fleet - Small	5868	B	 51,809.09					      363.63	SEP 17 FAST START	
2437230	D23	NAVDP4YA2STXB	NSW	30517	Suttons Homebush Nissan	Jun 2017	24/09/2017	CAPITAL K (AUST) PTY LTD			25/09/2017	DTE01A		CAPITAL K (AUST) PTY LTD	Business Fleet - Small	5868	B	 51,809.09					      900.00	Dealer Fleet Claim authorised 26/09/2017	
2437255	D23	NAVDP4YA2STXB	NSW	30517	Suttons Homebush Nissan	Jun 2017	31/08/2017	CAPITAL K (AUST) PTY LTD			31/08/2017	DSS35A		CAPITAL K (AUST) PTY LTD	Business Fleet - Small	5868	B	 51,809.09					    3,430.00	D23 SERIES 2 ORC	
2437255	D23	NAVDP4YA2STXB	NSW	30517	Suttons Homebush Nissan	Jun 2017	31/08/2017	CAPITAL K (AUST) PTY LTD			31/08/2017	DSS35A		CAPITAL K (AUST) PTY LTD	Business Fleet - Small	5868	B	 51,809.09					    2,090.90	D23  RETAIL BONUS	
2437255	D23	NAVDP4YA2STXB	NSW	30517	Suttons Homebush Nissan	Jun 2017	31/08/2017	CAPITAL K (AUST) PTY LTD			31/08/2017	DSS35A		CAPITAL K (AUST) PTY LTD	Business Fleet - Small	5868	B	 51,809.09					      900.00	Dealer Fleet Claim authorised 01/09/2017	
2437359	D23	NAVDP4YA2STXB	NSW	30517	Suttons Homebush Nissan	Jun 2017	18/01/2018	MR WILLIAM TOFILAU			31/01/2018	DTG45N		MR WILLIAM TOFILAU			R	 51,809.09					    2,707.00	D23 SERIES 2 ORC	
2437359	D23	NAVDP4YA2STXB	NSW	30517	Suttons Homebush Nissan	Jun 2017	18/01/2018	MR WILLIAM TOFILAU			31/01/2018	DTG45N		MR WILLIAM TOFILAU			R	 51,809.09					    3,636.36	D23 RETAIL BONUS	
2441424	D23	NAVDP4YA2STXB	NSW	30517	Suttons Homebush Nissan	Jul 2017	07/12/2017	G Q M LOGISTICS (AUST) P/L			11/12/2017	DSS34J		G Q M LOGISTICS (AUST) P/L	Business Fleet - Small	5868	B	 52,259.09					    3,228.00	D23 SERIES 2 ORC	
2441424	D23	NAVDP4YA2STXB	NSW	30517	Suttons Homebush Nissan	Jul 2017	07/12/2017	G Q M LOGISTICS (AUST) P/L			11/12/2017	DSS34J		G Q M LOGISTICS (AUST) P/L	Business Fleet - Small	5868	B	 52,259.09					    3,636.36	D23 RETAIL BONUS	
2441424	D23	NAVDP4YA2STXB	NSW	30517	Suttons Homebush Nissan	Jul 2017	07/12/2017	G Q M LOGISTICS (AUST) P/L			11/12/2017	DSS34J		G Q M LOGISTICS (AUST) P/L	Business Fleet - Small	5868	B	 52,259.09					      900.00	Dealer Fleet Claim authorised 12/12/2017	
2441425	D23	NAVDP4YA2STXB	NSW	30517	Suttons Homebush Nissan	Jul 2017	10/09/2017	CAPITAL K (AUST) PTY LTD			25/09/2017	JML233		CAPITAL K (AUST) PTY LTD	Business Fleet - Small	5868	B	 51,809.09					    3,251.76	D23 SERIES 2 ORC	
2441425	D23	NAVDP4YA2STXB	NSW	30517	Suttons Homebush Nissan	Jul 2017	10/09/2017	CAPITAL K (AUST) PTY LTD			25/09/2017	JML233		CAPITAL K (AUST) PTY LTD	Business Fleet - Small	5868	B	 51,809.09					    2,090.91	D23 RETAIL BONUS	
2441425	D23	NAVDP4YA2STXB	NSW	30517	Suttons Homebush Nissan	Jul 2017	10/09/2017	CAPITAL K (AUST) PTY LTD			25/09/2017	JML233		CAPITAL K (AUST) PTY LTD	Business Fleet - Small	5868	B	 51,809.09					      363.63	SEP 17 FAST START	
2441425	D23	NAVDP4YA2STXB	NSW	30517	Suttons Homebush Nissan	Jul 2017	10/09/2017	CAPITAL K (AUST) PTY LTD			25/09/2017	JML233		CAPITAL K (AUST) PTY LTD	Business Fleet - Small	5868	B	 51,809.09					      900.00	Dealer Fleet Claim authorised 26/09/2017	
2441422	D23	NAVDP4YA2STXB	NSW	30517	Suttons Homebush Nissan	Jul 2017	10/09/2017	CAPITAL K (AUST) PTY LTD			25/09/2017	TBA		CAPITAL K (AUST) PTY LTD	Business Fleet - Small	5868	B	 52,259.09					    3,276.76	D23 SERIES 2 ORC	
2441422	D23	NAVDP4YA2STXB	NSW	30517	Suttons Homebush Nissan	Jul 2017	10/09/2017	CAPITAL K (AUST) PTY LTD			25/09/2017	TBA		CAPITAL K (AUST) PTY LTD	Business Fleet - Small	5868	B	 52,259.09					    2,090.91	D23 RETAIL BONUS	
2441422	D23	NAVDP4YA2STXB	NSW	30517	Suttons Homebush Nissan	Jul 2017	10/09/2017	CAPITAL K (AUST) PTY LTD			25/09/2017	TBA		CAPITAL K (AUST) PTY LTD	Business Fleet - Small	5868	B	 52,259.09					      363.63	SEP 17 FAST START	
2441422	D23	NAVDP4YA2STXB	NSW	30517	Suttons Homebush Nissan	Jul 2017	10/09/2017	CAPITAL K (AUST) PTY LTD			25/09/2017	TBA		CAPITAL K (AUST) PTY LTD	Business Fleet - Small	5868	B	 52,259.09					      900.00	Dealer Fleet Claim authorised 26/09/2017	
2423053	D23	NAVDP4YA2STXS	NSW	30517	Suttons Homebush Nissan	Apr 2017	30/06/2017	MR JONATHAN LIAROS			10/07/2017	DNH77D		MR JONATHAN LIAROS			R	 50,895.45					    3,253.00	D23 SERIES 2 ORC	
2423053	D23	NAVDP4YA2STXS	NSW	30517	Suttons Homebush Nissan	Apr 2017	30/06/2017	MR JONATHAN LIAROS			10/07/2017	DNH77D		MR JONATHAN LIAROS			R	 50,895.45					    2,272.72	D23  RETAIL BONUS	
2426443	D23	NAVDP4YA2STXS	NSW	30517	Suttons Homebush Nissan	May 2017	10/07/2017	MR MICHAEL FRANCIS			17/07/2017	QLDREGO		MR MICHAEL FRANCIS			R	 50,895.45					    2,308.85	D23 SERIES 2 ORC	
2426443	D23	NAVDP4YA2STXS	NSW	30517	Suttons Homebush Nissan	May 2017	10/07/2017	MR MICHAEL FRANCIS			17/07/2017	QLDREGO		MR MICHAEL FRANCIS			R	 50,895.45					    2,272.72	D23  RETAIL BONUS	
2426062	D23	NAVDP4YA2STXS	NSW	30517	Suttons Homebush Nissan	May 2017	16/07/2017	MR ADAM BURTON			31/07/2017	DPS93Q		MR ADAM BURTON	Nissan Dealership Employee	105841	E	 50,895.45					    2,900.00	D23 DC 4X4 PREMIUM FLEET BONUSS	
2426062	D23	NAVDP4YA2STXS	NSW	30517	Suttons Homebush Nissan	May 2017	16/07/2017	MR ADAM BURTON			31/07/2017	DPS93Q		MR ADAM BURTON	Nissan Dealership Employee	105841	E	 50,895.45					    2,300.00	Dealer Fleet Claim authorised 01/08/2017	
2437267	D23	NAVDP4YA2STXS	NSW	30517	Suttons Homebush Nissan	Jun 2017	26/09/2017	LEE AND ZHANG PTY LTD	P-201709231		29/09/2017	DQW90R		LEE AND ZHANG PTY LTD	Business Fleet - Small	5868	B	 50,895.45					    3,319.00	D23 SERIES 2 ORC	
2437267	D23	NAVDP4YA2STXS	NSW	30517	Suttons Homebush Nissan	Jun 2017	26/09/2017	LEE AND ZHANG PTY LTD	P-201709231		29/09/2017	DQW90R		LEE AND ZHANG PTY LTD	Business Fleet - Small	5868	B	 50,895.45					    1,000.00	Dealer Fleet Claim authorised 30/09/2017	
2439626	D23	NAVDP4YA2STXS	NSW	30517	Suttons Homebush Nissan	Jul 2017	02/08/2017	GRQ INVESTMENT HOLDINGS P/L			17/08/2017	DQC61H		GRQ INVESTMENT HOLDINGS P/L	Business Fleet - Small	5868	B	 50,445.45					    3,151.00	D23 SERIES 2 ORC	
2439626	D23	NAVDP4YA2STXS	NSW	30517	Suttons Homebush Nissan	Jul 2017	02/08/2017	GRQ INVESTMENT HOLDINGS P/L			17/08/2017	DQC61H		GRQ INVESTMENT HOLDINGS P/L	Business Fleet - Small	5868	B	 50,445.45					    2,272.72	D23  RETAIL BONUS	
2439626	D23	NAVDP4YA2STXS	NSW	30517	Suttons Homebush Nissan	Jul 2017	02/08/2017	GRQ INVESTMENT HOLDINGS P/L			17/08/2017	DQC61H		GRQ INVESTMENT HOLDINGS P/L	Business Fleet - Small	5868	B	 50,445.45					    1,000.00	Dealer Fleet Claim authorised 18/08/2017	
2444742	D23	NAVDP4YA2STXS	NSW	30517	Suttons Homebush Nissan	Aug 2017	30/11/2017	MR ANDREI MATIC	P-201711301		30/11/2017	DSS34P		MR ANDREI MATIC			R	 50,895.45					    2,914.00	D23 SERIES 2 ORC	
2444742	D23	NAVDP4YA2STXS	NSW	30517	Suttons Homebush Nissan	Aug 2017	30/11/2017	MR ANDREI MATIC	P-201711301		30/11/2017	DSS34P		MR ANDREI MATIC			R	 50,895.45					      454.55	NOV 17 CLOSING BONUS	
2426064	D23	NAVDP4YA2STXS	NSW	30517	Suttons Homebush Nissan	Sep 2017	21/01/2018	MR SAM AQUILLINA			31/01/2018	DTG45S		MR SAM AQUILLINA			R	 50,445.45					    2,731.00	D23 SERIES 2 ORC	
2426064	D23	NAVDP4YA2STXS	NSW	30517	Suttons Homebush Nissan	Sep 2017	21/01/2018	MR SAM AQUILLINA			31/01/2018	DTG45S		MR SAM AQUILLINA			R	 50,445.45					    4,545.45	D23 RETAIL BONUS 1	
2414878	D23	NAVDP4YA2STXS	NSW	30517	Suttons Homebush Nissan	Sep 2017	18/02/2018	MR ROBERT FAKOUA			28/02/2018	TBA		MR ROBERT FAKOUA	Business Fleet - Small	5868	B	 50,445.45					    2,313.00	D23 ORC	
2414878	D23	NAVDP4YA2STXS	NSW	30517	Suttons Homebush Nissan	Sep 2017	18/02/2018	MR ROBERT FAKOUA			28/02/2018	TBA		MR ROBERT FAKOUA	Business Fleet - Small	5868	B	 50,445.45					    4,545.45	D23 RETAIL BONUS	
2414878	D23	NAVDP4YA2STXS	NSW	30517	Suttons Homebush Nissan	Sep 2017	18/02/2018	MR ROBERT FAKOUA			28/02/2018	TBA		MR ROBERT FAKOUA	Business Fleet - Small	5868	B	 50,445.45					      909.09	D23 AGED BONUS - SERIES 2	
2414878	D23	NAVDP4YA2STXS	NSW	30517	Suttons Homebush Nissan	Sep 2017	18/02/2018	MR ROBERT FAKOUA			28/02/2018	TBA		MR ROBERT FAKOUA	Business Fleet - Small	5868	B	 50,445.45					    1,000.00	Dealer Fleet Claim authorised 01/03/2018	
2433315	D23	NAVDP4YA2STXS	NSW	30517	Suttons Homebush Nissan	Oct 2017	06/02/2018	ONE UP SERVICES PTY LTD			28/02/2018	DTX17U		ONE UP SERVICES PTY LTD	Business Fleet - Small	5868	B	 50,445.45					    3,091.00	D23 ORC	
2433315	D23	NAVDP4YA2STXS	NSW	30517	Suttons Homebush Nissan	Oct 2017	06/02/2018	ONE UP SERVICES PTY LTD			28/02/2018	DTX17U		ONE UP SERVICES PTY LTD	Business Fleet - Small	5868	B	 50,445.45					    4,545.45	D23 RETAIL BONUS	
2433315	D23	NAVDP4YA2STXS	NSW	30517	Suttons Homebush Nissan	Oct 2017	06/02/2018	ONE UP SERVICES PTY LTD			28/02/2018	DTX17U		ONE UP SERVICES PTY LTD	Business Fleet - Small	5868	B	 50,445.45					      909.09	D23 AGED BONUS - SERIES 2	
2433315	D23	NAVDP4YA2STXS	NSW	30517	Suttons Homebush Nissan	Oct 2017	06/02/2018	ONE UP SERVICES PTY LTD			28/02/2018	DTX17U		ONE UP SERVICES PTY LTD	Business Fleet - Small	5868	B	 50,445.45					    1,000.00	Dealer Fleet Claim authorised 01/03/2018	
2456955	D23	NAVDP4YA2STXS	NSW	30517	Suttons Homebush Nissan	Oct 2017	24/01/2018	MR PEDRO DE FREITAS DUARTE			31/01/2018	DTG45R		MR PEDRO DE FREITAS DUARTE	Business Fleet - Small	5868	B	 50,895.45					    2,605.00	D23 SERIES 2 ORC	
2456955	D23	NAVDP4YA2STXS	NSW	30517	Suttons Homebush Nissan	Oct 2017	24/01/2018	MR PEDRO DE FREITAS DUARTE			31/01/2018	DTG45R		MR PEDRO DE FREITAS DUARTE	Business Fleet - Small	5868	B	 50,895.45					    4,545.45	D23 RETAIL BONUS 1	
2456955	D23	NAVDP4YA2STXS	NSW	30517	Suttons Homebush Nissan	Oct 2017	24/01/2018	MR PEDRO DE FREITAS DUARTE			31/01/2018	DTG45R		MR PEDRO DE FREITAS DUARTE	Business Fleet - Small	5868	B	 50,895.45					    1,000.00	Dealer Fleet Claim authorised 01/02/2018	
2426065	D23	NAVDP4YA2STXS	NSW	30517	Suttons Homebush Nissan	Nov 2017	14/01/2018	MR DEAN KRISTANOVSKI			17/01/2018	DTE01L		MR DEAN KRISTANOVSKI	Business Fleet - Small	5868	B	 50,895.45					    2,286.00	D23 SERIES 2 ORC	
2426065	D23	NAVDP4YA2STXS	NSW	30517	Suttons Homebush Nissan	Nov 2017	14/01/2018	MR DEAN KRISTANOVSKI			17/01/2018	DTE01L		MR DEAN KRISTANOVSKI	Business Fleet - Small	5868	B	 50,895.45					    4,545.45	D23 RETAIL BONUS 1	
2426065	D23	NAVDP4YA2STXS	NSW	30517	Suttons Homebush Nissan	Nov 2017	14/01/2018	MR DEAN KRISTANOVSKI			17/01/2018	DTE01L		MR DEAN KRISTANOVSKI	Business Fleet - Small	5868	B	 50,895.45					    1,000.00	Dealer Fleet Claim authorised 18/01/2018	
2470012	D23	NAVDP4YA3SL	NSW	30517	Suttons Homebush Nissan	Dec 2017					28/02/2018	DTX16M	29/11/2018	SUTTONS HOMEBUSH NISSAN			X	 42,263.64					    2,585.76	SERIES 3 NAVARA ON ROAD COST	
2470012	D23	NAVDP4YA3SL	NSW	30517	Suttons Homebush Nissan	Dec 2017					28/02/2018	DTX16M	29/11/2018	SUTTONS HOMEBUSH NISSAN			X	 42,263.64					    3,954.54	SERIES 3 NAVARA RETAIL BONUS	
2470012	D23	NAVDP4YA3SL	NSW	30517	Suttons Homebush Nissan	Dec 2017					28/02/2018	DTX16M	29/11/2018	SUTTONS HOMEBUSH NISSAN			X	 42,263.64					    1,363.64	D23 SER3 LAM FEB 18	
2470012	D23	NAVDP4YA3SL	NSW	30517	Suttons Homebush Nissan	Dec 2017					28/02/2018	DTX16M	29/11/2018	SUTTONS HOMEBUSH NISSAN			X	 42,263.64					      218.18	CVP FEBRUARY 2018	
2470012	D23	NAVDP4YA3SL	NSW	30517	Suttons Homebush Nissan	Dec 2017					28/02/2018	DTX16M	29/11/2018	SUTTONS HOMEBUSH NISSAN			X	 42,263.64					      251.74	CVP MARCH 2018	
2470012	D23	NAVDP4YA3SL	NSW	30517	Suttons Homebush Nissan	Dec 2017					28/02/2018	DTX16M	29/11/2018	SUTTONS HOMEBUSH NISSAN			X	 42,263.64					      225.70	CVP APRIL 2018	
2470012	D23	NAVDP4YA3SL	NSW	30517	Suttons Homebush Nissan	Dec 2017					28/02/2018	DTX16M	29/11/2018	SUTTONS HOMEBUSH NISSAN			X	 42,263.64					      233.93	CVP MAY 2018	
2470012	D23	NAVDP4YA3SL	NSW	30517	Suttons Homebush Nissan	Dec 2017					28/02/2018	DTX16M	29/11/2018	SUTTONS HOMEBUSH NISSAN			X	 42,263.64					      163.63	CVP JULY 2018	
2423086	D23	NAVDP4YM2SL	NSW	30517	Suttons Homebush Nissan	Apr 2017	18/09/2017	MS MELISSA GAY			25/09/2017	TBA		MS MELISSA GAY			R	 40,440.91					    4,409.09	D23  RETAIL BONUS	
2423086	D23	NAVDP4YM2SL	NSW	30517	Suttons Homebush Nissan	Apr 2017	18/09/2017	MS MELISSA GAY			25/09/2017	TBA		MS MELISSA GAY			R	 40,440.91					    2,917.00	ORC D23	
2423086	D23	NAVDP4YM2SL	NSW	30517	Suttons Homebush Nissan	Apr 2017	18/09/2017	MS MELISSA GAY			25/09/2017	TBA		MS MELISSA GAY			R	 40,440.91					      363.63	SEP 17 FAST START	
2438212	D23	NAVDP4YM2SL	NSW	30517	Suttons Homebush Nissan	Aug 2017	05/03/2018	MRS KYLIE POLLOCK			20/03/2018	DVK68A		MRS KYLIE POLLOCK	Business Fleet - Small	5868	B	 39,990.91					    2,581.00	D23 ORC	
2438212	D23	NAVDP4YM2SL	NSW	30517	Suttons Homebush Nissan	Aug 2017	05/03/2018	MRS KYLIE POLLOCK			20/03/2018	DVK68A		MRS KYLIE POLLOCK	Business Fleet - Small	5868	B	 39,990.91					    4,863.63	D23 RETAIL BONUS	
2438212	D23	NAVDP4YM2SL	NSW	30517	Suttons Homebush Nissan	Aug 2017	05/03/2018	MRS KYLIE POLLOCK			20/03/2018	DVK68A		MRS KYLIE POLLOCK	Business Fleet - Small	5868	B	 39,990.91					      909.09	D23 AGED BONUS - SERIES 2	
2438212	D23	NAVDP4YM2SL	NSW	30517	Suttons Homebush Nissan	Aug 2017	05/03/2018	MRS KYLIE POLLOCK			20/03/2018	DVK68A		MRS KYLIE POLLOCK	Business Fleet - Small	5868	B	 39,990.91					      700.00	Dealer Fleet Claim authorised 21/03/2018	
2450748	D23	NAVDP4YM2SL	NSW	30517	Suttons Homebush Nissan	Sep 2017	23/10/2017	MR STEVEN ROBERT IVEY	P-201710211		31/10/2017	DQW91U		MR STEVEN ROBERT IVEY			R	 39,990.91					    2,344.00	D23 SERIES 2 ORC	
2450748	D23	NAVDP4YM2SL	NSW	30517	Suttons Homebush Nissan	Sep 2017	23/10/2017	MR STEVEN ROBERT IVEY	P-201710211		31/10/2017	DQW91U		MR STEVEN ROBERT IVEY			R	 39,990.91					    2,136.36	SL RETAIL BONUS	
2450748	D23	NAVDP4YM2SL	NSW	30517	Suttons Homebush Nissan	Sep 2017	23/10/2017	MR STEVEN ROBERT IVEY	P-201710211		31/10/2017	DQW91U		MR STEVEN ROBERT IVEY			R	 39,990.91					      750.00	OCT 17 D23 STRREETCH	
2403797	D23	NAVDP4YM2ST	NSW	30517	Suttons Homebush Nissan	Jan 2017	05/07/2017	MR PATRICK MCKEON			17/07/2017	DNH77J		MR PATRICK MCKEON			R	 43,168.18					    2,869.00	D23 SERIES 2 ORC	
2409186	D23	NAVDP4YM2ST	NSW	30517	Suttons Homebush Nissan	May 2017	27/07/2017	MR JINGHUA YANG			31/07/2017	DQC62Q		MR JINGHUA YANG	Business Fleet - Small	5868	B	 43,168.18					    2,965.00	D23 SERIES 2 ORC	
2409186	D23	NAVDP4YM2ST	NSW	30517	Suttons Homebush Nissan	May 2017	27/07/2017	MR JINGHUA YANG			31/07/2017	DQC62Q		MR JINGHUA YANG	Business Fleet - Small	5868	B	 43,168.18					      800.00	Dealer Fleet Claim authorised 01/08/2017	
2442389	D23	NAVDP4YM2ST	NSW	30517	Suttons Homebush Nissan	Sep 2017	20/02/2018	MR THOMAS AUGUSTINE FENLON			28/02/2018	DTK16G		MR THOMAS AUGUSTINE FENLON	Business Fleet - Small	5868	B	 43,168.18					    2,091.00	D23 ORC	
2442389	D23	NAVDP4YM2ST	NSW	30517	Suttons Homebush Nissan	Sep 2017	20/02/2018	MR THOMAS AUGUSTINE FENLON			28/02/2018	DTK16G		MR THOMAS AUGUSTINE FENLON	Business Fleet - Small	5868	B	 43,168.18					    3,636.36	D23 RETAIL BONUS	
2442389	D23	NAVDP4YM2ST	NSW	30517	Suttons Homebush Nissan	Sep 2017	20/02/2018	MR THOMAS AUGUSTINE FENLON			28/02/2018	DTK16G		MR THOMAS AUGUSTINE FENLON	Business Fleet - Small	5868	B	 43,168.18					      909.09	D23 AGED BONUS - SERIES 2	
2442389	D23	NAVDP4YM2ST	NSW	30517	Suttons Homebush Nissan	Sep 2017	20/02/2018	MR THOMAS AUGUSTINE FENLON			28/02/2018	DTK16G		MR THOMAS AUGUSTINE FENLON	Business Fleet - Small	5868	B	 43,168.18					      800.00	Dealer Fleet Claim authorised 01/03/2018	
2456549	D23	NAVDP4YM2ST	NSW	30517	Suttons Homebush Nissan	Oct 2017	05/11/2017	COUPLE GREGORY AND NICOLE KORN	P-201711031		20/11/2017	DSG19H		COUPLE GREGORY AND NICOLE KORN			R	 43,168.18					    2,545.00	D23 SERIES 2 ORC	
2403109	D23	NAVDP4YM2STX	NSW	30517	Suttons Homebush Nissan	Jan 2017	30/07/2017	MS LYDIA RONNENKAMP			31/07/2017	DQW90F	29/09/2017	MS LYDIA RONNENKAMP	Business Fleet - Small	5868	B	 47,713.64					    3,244.00	D23 SERIES 2 ORC	
2403109	D23	NAVDP4YM2STX	NSW	30517	Suttons Homebush Nissan	Jan 2017	30/07/2017	MS LYDIA RONNENKAMP			31/07/2017	DQW90F	29/09/2017	MS LYDIA RONNENKAMP	Business Fleet - Small	5868	B	 47,713.64					      900.00	Dealer Fleet Claim authorised 30/09/2017	
2409505	D23	NAVDP4YM2STX	NSW	30517	Suttons Homebush Nissan	Apr 2017	30/06/2017	MR DARYL BURRELL	P-201706180		12/07/2017	524XTJ		MR DARYL BURRELL			R	 47,263.64					    2,897.49	17. SUO NUMBER FOR BURRELL IS 2409505.	
2456815	D23	NAVDP4YM2STX	NSW	30517	Suttons Homebush Nissan	Oct 2017	20/12/2017	MR MARTIN LEAAETOA			29/12/2017	DSS35P		MR MARTIN LEAAETOA			R	 47,713.64					    2,578.00	D23 SERIES 2 ORC	
2456815	D23	NAVDP4YM2STX	NSW	30517	Suttons Homebush Nissan	Oct 2017	20/12/2017	MR MARTIN LEAAETOA			29/12/2017	DSS35P		MR MARTIN LEAAETOA			R	 47,713.64					    4,545.45	D23 RETAIL BONUS 1	
2456815	D23	NAVDP4YM2STX	NSW	30517	Suttons Homebush Nissan	Oct 2017	20/12/2017	MR MARTIN LEAAETOA			29/12/2017	DSS35P		MR MARTIN LEAAETOA			R	 47,713.64					      454.54	BOXING DAY SALE	
2423096	D23	NAVDP4YM2STXB	NSW	30517	Suttons Homebush Nissan	Apr 2017	05/03/2018	MR STEVEN BYRA			12/03/2018	DTX16S		MR STEVEN BYRA			R	 49,536.36					    2,696.00	D23 ORC	
2423096	D23	NAVDP4YM2STXB	NSW	30517	Suttons Homebush Nissan	Apr 2017	05/03/2018	MR STEVEN BYRA			12/03/2018	DTX16S		MR STEVEN BYRA			R	 49,536.36					    3,636.36	D23 RETAIL BONUS	
2438642	D23	NAVDP4YM2STXB	NSW	30517	Suttons Homebush Nissan	Jun 2017	29/08/2017	MR BENJAMIN GILL			31/08/2017	DQC62T		MR BENJAMIN GILL			R	 49,536.36					    2,389.00	D23 SERIES 2 ORC	
2438642	D23	NAVDP4YM2STXB	NSW	30517	Suttons Homebush Nissan	Jun 2017	29/08/2017	MR BENJAMIN GILL			31/08/2017	DQC62T		MR BENJAMIN GILL			R	 49,536.36					    1,636.63	D23  RETAIL BONUS	
2438645	D23	NAVDP4YM2STXB	NSW	30517	Suttons Homebush Nissan	Jun 2017	05/12/2017	ACTION ELECTRICAL SUPPLIES PTY			11/12/2017	DSS34L		ACTION ELECTRICAL SUPPLIES PTY	Business Fleet - Small	5868	B	 49,536.36					    3,114.00	D23 SERIES 2 ORC	
2438645	D23	NAVDP4YM2STXB	NSW	30517	Suttons Homebush Nissan	Jun 2017	05/12/2017	ACTION ELECTRICAL SUPPLIES PTY			11/12/2017	DSS34L		ACTION ELECTRICAL SUPPLIES PTY	Business Fleet - Small	5868	B	 49,536.36					    3,636.36	D23 RETAIL BONUS	
2438645	D23	NAVDP4YM2STXB	NSW	30517	Suttons Homebush Nissan	Jun 2017	05/12/2017	ACTION ELECTRICAL SUPPLIES PTY			11/12/2017	DSS34L		ACTION ELECTRICAL SUPPLIES PTY	Business Fleet - Small	5868	B	 49,536.36					      900.00	Dealer Fleet Claim authorised 12/12/2017	
2438648	D23	NAVDP4YM2STXB	NSW	30517	Suttons Homebush Nissan	Jun 2017	15/08/2017	MR SAMUEL CHARALAMBOUS			28/08/2017	DYV13G		MR SAMUEL CHARALAMBOUS	Business Fleet - Small	5868	B	 49,536.36					    3,109.00	D23 SERIES 2 ORC	
2438648	D23	NAVDP4YM2STXB	NSW	30517	Suttons Homebush Nissan	Jun 2017	15/08/2017	MR SAMUEL CHARALAMBOUS			28/08/2017	DYV13G		MR SAMUEL CHARALAMBOUS	Business Fleet - Small	5868	B	 49,536.36					    1,636.63	D23  RETAIL BONUS	
2438648	D23	NAVDP4YM2STXB	NSW	30517	Suttons Homebush Nissan	Jun 2017	15/08/2017	MR SAMUEL CHARALAMBOUS			28/08/2017	DYV13G		MR SAMUEL CHARALAMBOUS	Business Fleet - Small	5868	B	 49,536.36					      900.00	Dealer Fleet Claim authorised 29/08/2017	
2408966	D23	NAVKP4YA2ST	NSW	30517	Suttons Homebush Nissan	Mar 2017					28/08/2017	DQC61Z	28/06/2018	SUTTONS HOMEBUSH NISSAN	Business Fleet - Small	5868	X	 42,263.64					    2,665.00	D23 ORC	
2408966	D23	NAVKP4YA2ST	NSW	30517	Suttons Homebush Nissan	Mar 2017					28/08/2017	DQC61Z	28/06/2018	SUTTONS HOMEBUSH NISSAN	Business Fleet - Small	5868	X	 42,263.64					      909.09	D23 RETAIL BONUS	
2408966	D23	NAVKP4YA2ST	NSW	30517	Suttons Homebush Nissan	Mar 2017					28/08/2017	DQC61Z	28/06/2018	SUTTONS HOMEBUSH NISSAN	Business Fleet - Small	5868	X	 42,263.64					      909.09	D23 AGED BONUS - SERIES 2	
2408966	D23	NAVKP4YA2ST	NSW	30517	Suttons Homebush Nissan	Mar 2017					28/08/2017	DQC61Z	28/06/2018	SUTTONS HOMEBUSH NISSAN	Business Fleet - Small	5868	X	 42,263.64					      233.76	CVP AUGUST 2017	
2408966	D23	NAVKP4YA2ST	NSW	30517	Suttons Homebush Nissan	Mar 2017					28/08/2017	DQC61Z	28/06/2018	SUTTONS HOMEBUSH NISSAN	Business Fleet - Small	5868	X	 42,263.64					      192.51	CVP SEPTEMBER 2017	
2408966	D23	NAVKP4YA2ST	NSW	30517	Suttons Homebush Nissan	Mar 2017					28/08/2017	DQC61Z	28/06/2018	SUTTONS HOMEBUSH NISSAN	Business Fleet - Small	5868	X	 42,263.64					      192.51	CVP OCTOBER 2017	
2408966	D23	NAVKP4YA2ST	NSW	30517	Suttons Homebush Nissan	Mar 2017					28/08/2017	DQC61Z	28/06/2018	SUTTONS HOMEBUSH NISSAN	Business Fleet - Small	5868	X	 42,263.64					      181.81	CVP NOVEMBER 2017	
2408966	D23	NAVKP4YA2ST	NSW	30517	Suttons Homebush Nissan	Mar 2017					28/08/2017	DQC61Z	28/06/2018	SUTTONS HOMEBUSH NISSAN	Business Fleet - Small	5868	X	 42,263.64					      187.01	CVP DECEMBER 2017	
2408966	D23	NAVKP4YA2ST	NSW	30517	Suttons Homebush Nissan	Mar 2017					28/08/2017	DQC61Z	28/06/2018	SUTTONS HOMEBUSH NISSAN	Business Fleet - Small	5868	X	 42,263.64					      204.54	CVP JANUARY 2018	
2408966	D23	NAVKP4YA2ST	NSW	30517	Suttons Homebush Nissan	Mar 2017					28/08/2017	DQC61Z	28/06/2018	SUTTONS HOMEBUSH NISSAN	Business Fleet - Small	5868	X	 42,263.64					      800.00	Dealer Fleet Claim authorised 29/06/2018	
2437550	D23	NAVKP4YA2ST	NSW	30517	Suttons Homebush Nissan	Jun 2017	27/07/2017	MR ANASTATIOS ZISSIS			31/07/2017	DPS93T		MR ANASTATIOS ZISSIS			R	 42,713.64					    1,363.63	D23  RETAIL BONUS	
2439670	D23	NAVKP4YA2STX	NSW	30517	Suttons Homebush Nissan	Jul 2017	06/09/2017	EMPIRE PROJECTS PTY LTD			14/09/2017	DQN76V		EMPIRE PROJECTS PTY LTD	Business Fleet - Small	5868	B	 47,718.18					    1,363.64	D23 RETAIL BONUS	
2439670	D23	NAVKP4YA2STX	NSW	30517	Suttons Homebush Nissan	Jul 2017	06/09/2017	EMPIRE PROJECTS PTY LTD			14/09/2017	DQN76V		EMPIRE PROJECTS PTY LTD	Business Fleet - Small	5868	B	 47,718.18					      363.63	SEP 17 FAST START	
2439670	D23	NAVKP4YA2STX	NSW	30517	Suttons Homebush Nissan	Jul 2017	06/09/2017	EMPIRE PROJECTS PTY LTD			14/09/2017	DQN76V		EMPIRE PROJECTS PTY LTD	Business Fleet - Small	5868	B	 47,718.18					      900.00	Dealer Fleet Claim authorised 15/09/2017	
2451311	D23	NAVKP4YA2STX	NSW	30517	Suttons Homebush Nissan	Sep 2017	10/12/2017	BUREAU OF METEOROLOGY			12/02/2018	CN93YH		BUREAU OF METEOROLOGY	Dasfleet Government Sales	66700	C	 48,168.18							
2336687	F15	JUKE4H16ATTIS2	NSW	30517	Suttons Homebush Nissan	Feb 2016	16/07/2017	MRS EMMA ROBERTSON			24/07/2017	DNH77V		MRS EMMA ROBERTSON			R	 30,445.45					    1,632.00	F15W ORC	
2336687	F15	JUKE4H16ATTIS2	NSW	30517	Suttons Homebush Nissan	Feb 2016	16/07/2017	MRS EMMA ROBERTSON			24/07/2017	DNH77V		MRS EMMA ROBERTSON			R	 30,445.45					    1,818.18	F15W RETAIL BONUS	
2336687	F15	JUKE4H16ATTIS2	NSW	30517	Suttons Homebush Nissan	Feb 2016	16/07/2017	MRS EMMA ROBERTSON			24/07/2017	DNH77V		MRS EMMA ROBERTSON			R	 30,445.45					    1,818.18	F15W AGED BONUS	
2357883	F15	JUKE4H16ATTIS2	NSW	30517	Suttons Homebush Nissan	May 2016					28/02/2017	DNF02E	13/11/2017	MR ANTHONY TONY YOUNAN			R	 30,895.45					    2,130.00	F15W ORC	
2357883	F15	JUKE4H16ATTIS2	NSW	30517	Suttons Homebush Nissan	May 2016					28/02/2017	DNF02E	13/11/2017	MR ANTHONY TONY YOUNAN			R	 30,895.45					      909.09	F15W AGED BONUS	
2384820	F15	JUKE4H16ATTIS2	NSW	30517	Suttons Homebush Nissan	Oct 2016	15/08/2017	MRS MEGAN CORBETT			31/08/2017	TBA		MRS MEGAN CORBETT			R	 30,445.45					    1,901.00	F15W ORC	
2384820	F15	JUKE4H16ATTIS2	NSW	30517	Suttons Homebush Nissan	Oct 2016	15/08/2017	MRS MEGAN CORBETT			31/08/2017	TBA		MRS MEGAN CORBETT			R	 30,445.45					    1,818.18	F15W RETAIL BONUS	
2384820	F15	JUKE4H16ATTIS2	NSW	30517	Suttons Homebush Nissan	Oct 2016	15/08/2017	MRS MEGAN CORBETT			31/08/2017	TBA		MRS MEGAN CORBETT			R	 30,445.45					    1,818.18	F15W AGED BONUS	
2396331	F15	JUKE4H16ATTIS2	NSW	30517	Suttons Homebush Nissan	Dec 2016	11/07/2017	MRS SHANNAN AIREY			24/07/2017	DNH77S		MRS SHANNAN AIREY			R	 30,895.45					    1,838.00	F15W ORC	
2396331	F15	JUKE4H16ATTIS2	NSW	30517	Suttons Homebush Nissan	Dec 2016	11/07/2017	MRS SHANNAN AIREY			24/07/2017	DNH77S		MRS SHANNAN AIREY			R	 30,895.45					    1,818.18	F15W AGED BONUS	
2396331	F15	JUKE4H16ATTIS2	NSW	30517	Suttons Homebush Nissan	Dec 2016	11/07/2017	MRS SHANNAN AIREY			24/07/2017	DNH77S		MRS SHANNAN AIREY			R	 30,895.45					    1,818.18	F15W RETAIL BONUS	
2396300	F15	JUKE4H16ATTIS2	NSW	30517	Suttons Homebush Nissan	Dec 2016	15/08/2017	MRS KERRY MICHELLE FLYNN			16/08/2017	DQC61M		MRS KERRY MICHELLE FLYNN			R	 30,445.45					    1,892.00	F15W ORC	
2396300	F15	JUKE4H16ATTIS2	NSW	30517	Suttons Homebush Nissan	Dec 2016	15/08/2017	MRS KERRY MICHELLE FLYNN			16/08/2017	DQC61M		MRS KERRY MICHELLE FLYNN			R	 30,445.45					    1,818.18	F15W RETAIL BONUS	
2396300	F15	JUKE4H16ATTIS2	NSW	30517	Suttons Homebush Nissan	Dec 2016	15/08/2017	MRS KERRY MICHELLE FLYNN			16/08/2017	DQC61M		MRS KERRY MICHELLE FLYNN			R	 30,445.45					    1,818.18	F15W AGED BONUS	
2396299	F15	JUKE4H16ATTIS2	NSW	30517	Suttons Homebush Nissan	Dec 2016	10/07/2017	ZAGSS PTY LTD			31/07/2017	DNH77Y		ZAGSS PTY LTD			R	 30,895.45					    2,116.00	F15W ORC	
2396299	F15	JUKE4H16ATTIS2	NSW	30517	Suttons Homebush Nissan	Dec 2016	10/07/2017	ZAGSS PTY LTD			31/07/2017	DNH77Y		ZAGSS PTY LTD			R	 30,895.45					    1,818.18	F15W RETAIL BONUS	
2396299	F15	JUKE4H16ATTIS2	NSW	30517	Suttons Homebush Nissan	Dec 2016	10/07/2017	ZAGSS PTY LTD			31/07/2017	DNH77Y		ZAGSS PTY LTD			R	 30,895.45					    1,818.18	F15W AGED BONUS	
2401639	F15	JUKE4H16ATTIS2	NSW	30517	Suttons Homebush Nissan	Jan 2017					30/03/2017	DNF02G	29/09/2017	MISS SUSIE MAROON			R	 30,445.45					    2,217.00	JUKE ORC	
2405205	F15	JUKE4H16ATTIS2	NSW	30517	Suttons Homebush Nissan	Jan 2017					19/09/2017	DQN77T	04/12/2017	MS LISA HYNARD			R	 30,445.45					    2,214.00	F15W ORC	
2405205	F15	JUKE4H16ATTIS2	NSW	30517	Suttons Homebush Nissan	Jan 2017					19/09/2017	DQN77T	04/12/2017	MS LISA HYNARD			R	 30,445.45					    2,272.72	F15W RETAIL BONUS	
2405205	F15	JUKE4H16ATTIS2	NSW	30517	Suttons Homebush Nissan	Jan 2017					19/09/2017	DQN77T	04/12/2017	MS LISA HYNARD			R	 30,445.45					      192.51	CVP SEPTEMBER 2017	
2405205	F15	JUKE4H16ATTIS2	NSW	30517	Suttons Homebush Nissan	Jan 2017					19/09/2017	DQN77T	04/12/2017	MS LISA HYNARD			R	 30,445.45					      192.51	CVP OCTOBER 2017	
2405205	F15	JUKE4H16ATTIS2	NSW	30517	Suttons Homebush Nissan	Jan 2017					19/09/2017	DQN77T	04/12/2017	MS LISA HYNARD			R	 30,445.45					      181.81	CVP NOVEMBER 2017	
2438710	F15	JUKE4H16ATTIS2	NSW	30517	Suttons Homebush Nissan	Jul 2017	16/01/2018	MISS KYUNG LEE			22/01/2018	DTE01Q		MISS KYUNG LEE			R	 30,445.45					    1,803.00	F15W ORC	
2438710	F15	JUKE4H16ATTIS2	NSW	30517	Suttons Homebush Nissan	Jul 2017	16/01/2018	MISS KYUNG LEE			22/01/2018	DTE01Q		MISS KYUNG LEE			R	 30,445.45					    2,272.72	F15W RETAIL BONUS	
2455850	F15	JUKE4H16ATTIS2	NSW	30517	Suttons Homebush Nissan	Oct 2017	29/12/2017	SUTTONS HOMEBUSH NISSAN			29/12/2017	DSS35X	23/02/2019	SUTTONS HOMEBUSH NISSAN			D	 30,445.45					      454.55	BONUS DIFFERENCE FOR 18 COMPLIANCE PLATE	
2455850	F15	JUKE4H16ATTIS2	NSW	30517	Suttons Homebush Nissan	Oct 2017	29/12/2017	SUTTONS HOMEBUSH NISSAN			29/12/2017	DSS35X	23/02/2019	SUTTONS HOMEBUSH NISSAN			D	 30,445.45					      152.22	CVP SEPTEMBER	
2455850	F15	JUKE4H16ATTIS2	NSW	30517	Suttons Homebush Nissan	Oct 2017	29/12/2017	SUTTONS HOMEBUSH NISSAN			29/12/2017	DSS35X	23/02/2019	SUTTONS HOMEBUSH NISSAN			D	 30,445.45					    2,408.55	Z CAR FEB	
2455850	F15	JUKE4H16ATTIS2	NSW	30517	Suttons Homebush Nissan	Oct 2017	29/12/2017	SUTTONS HOMEBUSH NISSAN			29/12/2017	DSS35X	23/02/2019	SUTTONS HOMEBUSH NISSAN			D	 30,445.45					      187.01	CVP DECEMBER 2017	
2455850	F15	JUKE4H16ATTIS2	NSW	30517	Suttons Homebush Nissan	Oct 2017	29/12/2017	SUTTONS HOMEBUSH NISSAN			29/12/2017	DSS35X	23/02/2019	SUTTONS HOMEBUSH NISSAN			D	 30,445.45					      204.54	CVP JANUARY 2018	
2455850	F15	JUKE4H16ATTIS2	NSW	30517	Suttons Homebush Nissan	Oct 2017	29/12/2017	SUTTONS HOMEBUSH NISSAN			29/12/2017	DSS35X	23/02/2019	SUTTONS HOMEBUSH NISSAN			D	 30,445.45					      218.18	CVP FEBRUARY 2018	
2455850	F15	JUKE4H16ATTIS2	NSW	30517	Suttons Homebush Nissan	Oct 2017	29/12/2017	SUTTONS HOMEBUSH NISSAN			29/12/2017	DSS35X	23/02/2019	SUTTONS HOMEBUSH NISSAN			D	 30,445.45					      251.74	CVP MARCH 2018	
2455850	F15	JUKE4H16ATTIS2	NSW	30517	Suttons Homebush Nissan	Oct 2017	29/12/2017	SUTTONS HOMEBUSH NISSAN			29/12/2017	DSS35X	23/02/2019	SUTTONS HOMEBUSH NISSAN			D	 30,445.45					      225.70	CVP APRIL 2018	
2455850	F15	JUKE4H16ATTIS2	NSW	30517	Suttons Homebush Nissan	Oct 2017	29/12/2017	SUTTONS HOMEBUSH NISSAN			29/12/2017	DSS35X	23/02/2019	SUTTONS HOMEBUSH NISSAN			D	 30,445.45					      233.76	CVP MAY 2018	
2455846	F15	JUKE4H16ATTIS2	NSW	30517	Suttons Homebush Nissan	Oct 2017	04/02/2018	MRS JENNIFER SO			12/02/2018	DTX17G		MRS JENNIFER SO			R	 30,945.45					    1,817.00	F15W ORC	
2455846	F15	JUKE4H16ATTIS2	NSW	30517	Suttons Homebush Nissan	Oct 2017	04/02/2018	MRS JENNIFER SO			12/02/2018	DTX17G		MRS JENNIFER SO			R	 30,945.45					      909.09	F15W RETAIL BONUS	
2389021	J11	QASHQAI2DCTS	NSW	30517	Suttons Homebush Nissan	Oct 2016	26/07/2017	ST BASIL'S HOMES			31/07/2017	TBA		ST BASIL'S HOMES	ST BASIL'S HOMES	124151	Y	 30,900.00					    2,000.00	Dealer Fleet Claim authorised 01/08/2017	
2447583	J11	QASHQAI2PCNTEC2	NSW	30517	Suttons Homebush Nissan	Sep 2017	20/12/2017	MR SANDESH LAMA SYANGTAN			28/12/2017	DSS35L		MR SANDESH LAMA SYANGTAN			R	 33,172.73					      454.54	BOXING DAY SALE	
2447500	J11	QASHQAI2PCNTEC2	NSW	30517	Suttons Homebush Nissan	Sep 2017					30/11/2017	DSS34X	18/06/2018	SUTTONS HOMEBUSH NISSAN			D	 33,622.73					    1,044.00	J11W ON ROAD COSTS - SERIES 2_CONTRIBUTION	
2447500	J11	QASHQAI2PCNTEC2	NSW	30517	Suttons Homebush Nissan	Sep 2017					30/11/2017	DSS34X	18/06/2018	SUTTONS HOMEBUSH NISSAN			D	 33,622.73					      454.54	J11W AGED BONUS SERIES 2	
2447500	J11	QASHQAI2PCNTEC2	NSW	30517	Suttons Homebush Nissan	Sep 2017					30/11/2017	DSS34X	18/06/2018	SUTTONS HOMEBUSH NISSAN			D	 33,622.73					    1,363.64	NOV 17 J11 SER2 LAM FOR DEMO	
2447500	J11	QASHQAI2PCNTEC2	NSW	30517	Suttons Homebush Nissan	Sep 2017					30/11/2017	DSS34X	18/06/2018	SUTTONS HOMEBUSH NISSAN			D	 33,622.73					      181.81	CVP NOVEMBER 2017	
2447500	J11	QASHQAI2PCNTEC2	NSW	30517	Suttons Homebush Nissan	Sep 2017					30/11/2017	DSS34X	18/06/2018	SUTTONS HOMEBUSH NISSAN			D	 33,622.73					      187.01	CVP DECEMBER 2017	
2447500	J11	QASHQAI2PCNTEC2	NSW	30517	Suttons Homebush Nissan	Sep 2017					30/11/2017	DSS34X	18/06/2018	SUTTONS HOMEBUSH NISSAN			D	 33,622.73					      204.54	CVP JANUARY 2018	
2447500	J11	QASHQAI2PCNTEC2	NSW	30517	Suttons Homebush Nissan	Sep 2017					30/11/2017	DSS34X	18/06/2018	SUTTONS HOMEBUSH NISSAN			D	 33,622.73					      218.18	CVP FEBRUARY 2018	
2447500	J11	QASHQAI2PCNTEC2	NSW	30517	Suttons Homebush Nissan	Sep 2017					30/11/2017	DSS34X	18/06/2018	SUTTONS HOMEBUSH NISSAN			D	 33,622.73					      251.74	CVP MARCH 2018	
2447500	J11	QASHQAI2PCNTEC2	NSW	30517	Suttons Homebush Nissan	Sep 2017					30/11/2017	DSS34X	18/06/2018	SUTTONS HOMEBUSH NISSAN			D	 33,622.73					      225.70	CVP APRIL 2018	
2447536	J11	QASHQAI2PCNTEC2	NSW	30517	Suttons Homebush Nissan	Sep 2017	20/12/2017	MR RULA ELDEGEL			28/12/2017	CN88YH		MR RULA ELDEGEL	SG Fleet	104699	I	 33,622.73					      500.00	PARTNER FLEET BONUS	
2447536	J11	QASHQAI2PCNTEC2	NSW	30517	Suttons Homebush Nissan	Sep 2017	20/12/2017	MR RULA ELDEGEL			28/12/2017	CN88YH		MR RULA ELDEGEL	SG Fleet	104699	I	 33,622.73					    1,000.00	Dealer Fleet Claim authorised 29/12/2017	
2447522	J11	QASHQAI2PCNTEC2	NSW	30517	Suttons Homebush Nissan	Sep 2017	17/01/2018	MR ARISTIDIS LIRANTZIS			22/01/2018	AL0145		MR ARISTIDIS LIRANTZIS			R	 33,622.73							
2447641	J11	QASHQAI2PCNTEC2	NSW	30517	Suttons Homebush Nissan	Sep 2017	11/03/2018	MRS NIVANI PILLAI			15/03/2018	DTX16U		MRS NIVANI PILLAI			R	 33,172.73					    2,087.00	QASHQAI SERIES 2 ORC	
2447677	J11	QASHQAI2PCNTEC2	NSW	30517	Suttons Homebush Nissan	Sep 2017	13/03/2018	MS GIOVANNA PAPALLO			20/03/2018	GP0203		MS GIOVANNA PAPALLO			R	 33,172.73					    2,012.00	QASHQAI SERIES 2 ORC	
2458747	J11	QASHQAI2PCNTEC2	NSW	30517	Suttons Homebush Nissan	Oct 2017	20/03/2018	MR PHILIP COWLISHAW	P-201803180		22/03/2018	DVK68G		MR PHILIP COWLISHAW	Nissan Corporate Employee - New	143980	O	 33,672.73					    2,500.00	Dealer Fleet Claim authorised 23/03/2018	
2458750	J11	QASHQAI2PCNTEC2	NSW	30517	Suttons Homebush Nissan	Oct 2017	04/03/2018	MRS VALERIE ANNE CHANDLER-COSTANZO			15/03/2018	AC99MC		MRS VALERIE ANNE CHANDLER-COSTANZO			R	 33,672.73					    2,204.00	QASHQAI SERIES 2 ORC	
2458750	J11	QASHQAI2PCNTEC2	NSW	30517	Suttons Homebush Nissan	Oct 2017	04/03/2018	MRS VALERIE ANNE CHANDLER-COSTANZO			15/03/2018	AC99MC		MRS VALERIE ANNE CHANDLER-COSTANZO			R	 33,672.73					      318.18	NISSAN LOYALTY PROGRAM	
2454530	J11	QASHQAI2PCNTEC2	NSW	30517	Suttons Homebush Nissan	Oct 2017					28/02/2018	DTX16X	31/03/2018	SUTTONS HOMEBUSH NISSAN			D	 33,672.73					    2,235.00	QASHQAI SERIES 2 ORC	
2454530	J11	QASHQAI2PCNTEC2	NSW	30517	Suttons Homebush Nissan	Oct 2017					28/02/2018	DTX16X	31/03/2018	SUTTONS HOMEBUSH NISSAN			D	 33,672.73					      218.18	CVP FEBRUARY 2018	
2454504	J11	QASHQAI2PCNTEC2	NSW	30517	Suttons Homebush Nissan	Oct 2017	25/02/2018	COUPLE FABIOLA & DANIEL BEDON			28/02/2018	DTX16C		COUPLE FABIOLA & DANIEL BEDON			R	 33,672.73							
2409024	J11	QASHQAI2PCST	NSW	30517	Suttons Homebush Nissan	Mar 2017	30/08/2017	AIR LIQUIDE AUSTRALIA LTD			31/08/2017	TBA		AIR LIQUIDE AUSTRALIA LTD	AIR LIQUIDE AUSTRALIA LIMITED	131089	N	 25,900.00					    2,000.00	J11 NATIONAL FLEET BONUS	
2409024	J11	QASHQAI2PCST	NSW	30517	Suttons Homebush Nissan	Mar 2017	30/08/2017	AIR LIQUIDE AUSTRALIA LTD			31/08/2017	TBA		AIR LIQUIDE AUSTRALIA LTD	AIR LIQUIDE AUSTRALIA LIMITED	131089	N	 25,900.00					    2,000.00	Dealer Fleet Claim authorised 01/09/2017	
2406771	J11	QASHQAI2PCST	NSW	30517	Suttons Homebush Nissan	Mar 2017	24/07/2017	MS ARZU HOPSON			31/07/2017	DPS92S		MS ARZU HOPSON			R	 25,900.00					    1,775.00	J11W ORC	
2406771	J11	QASHQAI2PCST	NSW	30517	Suttons Homebush Nissan	Mar 2017	24/07/2017	MS ARZU HOPSON			31/07/2017	DPS92S		MS ARZU HOPSON			R	 25,900.00					    2,272.72	J11W RETAIL BONUS	
2415790	J11	QASHQAI2PCST	NSW	30517	Suttons Homebush Nissan	Mar 2017	21/01/2018	MR LESZEK TOMIAK			31/01/2018	DTG45D		MR LESZEK TOMIAK			R	 26,350.00					    1,716.00	J11W ORC	
2415790	J11	QASHQAI2PCST	NSW	30517	Suttons Homebush Nissan	Mar 2017	21/01/2018	MR LESZEK TOMIAK			31/01/2018	DTG45D		MR LESZEK TOMIAK			R	 26,350.00					    1,363.63	QASHQAI RETAIL BONUS	
2414678	J11	QASHQAI2PCST	NSW	30517	Suttons Homebush Nissan	Mar 2017	09/07/2017	MR PETER FUNG			17/07/2017	CM38JL		MR PETER FUNG			R	 25,900.00					    1,703.00	J11W ORC	
2414678	J11	QASHQAI2PCST	NSW	30517	Suttons Homebush Nissan	Mar 2017	09/07/2017	MR PETER FUNG			17/07/2017	CM38JL		MR PETER FUNG			R	 25,900.00					    2,272.72	J11W RETAIL BONUS	
2409034	J11	QASHQAI2PCST	NSW	30517	Suttons Homebush Nissan	Apr 2017	07/08/2017	AIR LIQUIDE AUSTRALIA LTD			28/08/2017	CM68JL		AIR LIQUIDE AUSTRALIA LTD	AIR LIQUIDE AUSTRALIA LIMITED	131089	N	 25,900.00					    2,000.00	J11 NATIONAL FLEET BONUS	
2409034	J11	QASHQAI2PCST	NSW	30517	Suttons Homebush Nissan	Apr 2017	07/08/2017	AIR LIQUIDE AUSTRALIA LTD			28/08/2017	CM68JL		AIR LIQUIDE AUSTRALIA LTD	AIR LIQUIDE AUSTRALIA LIMITED	131089	N	 25,900.00					    2,000.00	Dealer Fleet Claim authorised 29/08/2017	
2421647	J11	QASHQAI2PCST	NSW	30517	Suttons Homebush Nissan	Apr 2017	14/01/2018	MR DAVID HICKEY			23/01/2018	DTE01U		MR DAVID HICKEY			R	 25,900.00					    1,716.00	J11W ORC	
2421647	J11	QASHQAI2PCST	NSW	30517	Suttons Homebush Nissan	Apr 2017	14/01/2018	MR DAVID HICKEY			23/01/2018	DTE01U		MR DAVID HICKEY			R	 25,900.00					    1,363.63	QASHQAI RETAIL BONUS	
2420609	J11	QASHQAI2PCST	NSW	30517	Suttons Homebush Nissan	May 2017	10/09/2017	MR GENTOKU OKUBO			21/09/2017	DQN77N		MR GENTOKU OKUBO			R	 25,900.00					    1,781.00	J11W ORC	
2420609	J11	QASHQAI2PCST	NSW	30517	Suttons Homebush Nissan	May 2017	10/09/2017	MR GENTOKU OKUBO			21/09/2017	DQN77N		MR GENTOKU OKUBO			R	 25,900.00					    1,363.63	J11W RETAIL BONUS	
2426072	J11	QASHQAI2PCST	NSW	30517	Suttons Homebush Nissan	May 2017					30/09/2017	DQW91D	12/06/2018	SUTTONS HOMEBUSH NISSAN			D	 26,350.00					    1,998.00	J11W ORC	
2426072	J11	QASHQAI2PCST	NSW	30517	Suttons Homebush Nissan	May 2017					30/09/2017	DQW91D	12/06/2018	SUTTONS HOMEBUSH NISSAN			D	 26,350.00					    1,363.63	QASHQAI RETAIL BONUS	
2426072	J11	QASHQAI2PCST	NSW	30517	Suttons Homebush Nissan	May 2017					30/09/2017	DQW91D	12/06/2018	SUTTONS HOMEBUSH NISSAN			D	 26,350.00					      192.51	CVP SEPTEMBER 2017	
2426072	J11	QASHQAI2PCST	NSW	30517	Suttons Homebush Nissan	May 2017					30/09/2017	DQW91D	12/06/2018	SUTTONS HOMEBUSH NISSAN			D	 26,350.00					      192.51	CVP OCTOBER 2017	
2426072	J11	QASHQAI2PCST	NSW	30517	Suttons Homebush Nissan	May 2017					30/09/2017	DQW91D	12/06/2018	SUTTONS HOMEBUSH NISSAN			D	 26,350.00					      181.81	CVP NOVEMBER 2017	
2426072	J11	QASHQAI2PCST	NSW	30517	Suttons Homebush Nissan	May 2017					30/09/2017	DQW91D	12/06/2018	SUTTONS HOMEBUSH NISSAN			D	 26,350.00					      187.01	CVP DECEMBER 2017	
2426072	J11	QASHQAI2PCST	NSW	30517	Suttons Homebush Nissan	May 2017					30/09/2017	DQW91D	12/06/2018	SUTTONS HOMEBUSH NISSAN			D	 26,350.00					      204.54	CVP JANUARY 2018	
2426072	J11	QASHQAI2PCST	NSW	30517	Suttons Homebush Nissan	May 2017					30/09/2017	DQW91D	12/06/2018	SUTTONS HOMEBUSH NISSAN			D	 26,350.00					      218.18	CVP FEBRUARY 2018	
2426071	J11	QASHQAI2PCST	NSW	30517	Suttons Homebush Nissan	May 2017	16/08/2017	MS CHRISTINE SAARINSEN			29/08/2017	DQC62C		MS CHRISTINE SAARINSEN			R	 26,350.00					    1,507.00	J11W ORC	
2426071	J11	QASHQAI2PCST	NSW	30517	Suttons Homebush Nissan	May 2017	16/08/2017	MS CHRISTINE SAARINSEN			29/08/2017	DQC62C		MS CHRISTINE SAARINSEN			R	 26,350.00					    2,272.72	J11W RETAIL BONUS	
2426074	J11	QASHQAI2PCST	NSW	30517	Suttons Homebush Nissan	May 2017	10/07/2017	MR YONGWOOK KIM			31/07/2017	DPS92Z		MR YONGWOOK KIM			R	 25,900.00					    1,817.00	J11W ORC	
2426074	J11	QASHQAI2PCST	NSW	30517	Suttons Homebush Nissan	May 2017	10/07/2017	MR YONGWOOK KIM			31/07/2017	DPS92Z		MR YONGWOOK KIM			R	 25,900.00					    2,272.72	J11W RETAIL BONUS	
2426459	J11	QASHQAI2PCST	NSW	30517	Suttons Homebush Nissan	May 2017	21/09/2017	MR NOHSUN KWAK			29/09/2017	DQW90P		MR NOHSUN KWAK			R	 25,900.00					    1,838.00	J11W ORC	
2426459	J11	QASHQAI2PCST	NSW	30517	Suttons Homebush Nissan	May 2017	21/09/2017	MR NOHSUN KWAK			29/09/2017	DQW90P		MR NOHSUN KWAK			R	 25,900.00					    1,363.63	QASHQAI RETAIL BONUS - PETROL	
2426073	J11	QASHQAI2PCST	NSW	30517	Suttons Homebush Nissan	May 2017	18/08/2017	MR ANGUS KNOBLANCHE			28/08/2017	DQC62A		MR ANGUS KNOBLANCHE	SG Fleet	104699	I	 26,350.00					    3,000.00	J11 PARTNER FLEET BONUS	
2426073	J11	QASHQAI2PCST	NSW	30517	Suttons Homebush Nissan	May 2017	18/08/2017	MR ANGUS KNOBLANCHE			28/08/2017	DQC62A		MR ANGUS KNOBLANCHE	SG Fleet	104699	I	 26,350.00					    1,000.00	Dealer Fleet Claim authorised 29/08/2017	
2406156	J11	QASHQAI2PCST	NSW	30517	Suttons Homebush Nissan	May 2017	21/08/2017	MRS SALLY KYUNG SUN SIM			30/08/2017	DQC62M		MRS SALLY KYUNG SUN SIM			R	 26,350.00					    1,796.00	J11W ORC	
2406156	J11	QASHQAI2PCST	NSW	30517	Suttons Homebush Nissan	May 2017	21/08/2017	MRS SALLY KYUNG SUN SIM			30/08/2017	DQC62M		MRS SALLY KYUNG SUN SIM			R	 26,350.00					    2,272.72	J11W RETAIL BONUS	
2409040	J11	QASHQAI2PCST	NSW	30517	Suttons Homebush Nissan	May 2017	16/08/2017	MS AMY FARAH			21/08/2017	DQC61T		MS AMY FARAH			R	 26,350.00					    1,736.00	J11W ORC	
2409040	J11	QASHQAI2PCST	NSW	30517	Suttons Homebush Nissan	May 2017	16/08/2017	MS AMY FARAH			21/08/2017	DQC61T		MS AMY FARAH			R	 26,350.00					    2,272.72	J11W RETAIL BONUS	
2428326	J11	QASHQAI2PCST	NSW	30517	Suttons Homebush Nissan	May 2017					30/11/2017	DSS34S	18/12/2017	MR PETER O'BRIEN			R	 26,350.00					    1,873.00	J11W ORC	
2428326	J11	QASHQAI2PCST	NSW	30517	Suttons Homebush Nissan	May 2017					30/11/2017	DSS34S	18/12/2017	MR PETER O'BRIEN			R	 26,350.00					    1,363.63	QASHQAI RETAIL BONUS	
2428326	J11	QASHQAI2PCST	NSW	30517	Suttons Homebush Nissan	May 2017					30/11/2017	DSS34S	18/12/2017	MR PETER O'BRIEN			R	 26,350.00					      181.81	CVP NOVEMBER 2017	
2428239	J11	QASHQAI2PCST	NSW	30517	Suttons Homebush Nissan	May 2017	24/12/2017	MS SASINA DEELEE			29/12/2017	TBA		MS SASINA DEELEE			R	 26,350.00					    1,707.00	J11W ORC	
2428239	J11	QASHQAI2PCST	NSW	30517	Suttons Homebush Nissan	May 2017	24/12/2017	MS SASINA DEELEE			29/12/2017	TBA		MS SASINA DEELEE			R	 26,350.00					    1,363.63	QASHQAI RETAIL BONUS	
2428239	J11	QASHQAI2PCST	NSW	30517	Suttons Homebush Nissan	May 2017	24/12/2017	MS SASINA DEELEE			29/12/2017	TBA		MS SASINA DEELEE			R	 26,350.00					      681.81	BOXING DAY SALE	
2428382	J11	QASHQAI2PCST	NSW	30517	Suttons Homebush Nissan	May 2017	03/09/2017	MRS JAESOO KO			19/09/2017	DQN76W		MRS JAESOO KO			R	 26,350.00					    2,067.00	J11W ORC	
2428382	J11	QASHQAI2PCST	NSW	30517	Suttons Homebush Nissan	May 2017	03/09/2017	MRS JAESOO KO			19/09/2017	DQN76W		MRS JAESOO KO			R	 26,350.00					    1,363.63	J11W RETAIL BONUS	
2428541	J11	QASHQAI2PCST	NSW	30517	Suttons Homebush Nissan	May 2017	28/01/2018	MR GORAN GAJIC			31/01/2018	TBA		MR GORAN GAJIC			R	 25,900.00					    1,646.00	J11W ORC	
2428541	J11	QASHQAI2PCST	NSW	30517	Suttons Homebush Nissan	May 2017	28/01/2018	MR GORAN GAJIC			31/01/2018	TBA		MR GORAN GAJIC			R	 25,900.00					    1,363.63	QASHQAI RETAIL BONUS	
2426457	J11	QASHQAI2PCST	NSW	30517	Suttons Homebush Nissan	May 2017	14/01/2018	MR SNAKYKUMAR THAKKAR			18/01/2018	DTE01H		MR SNAKYKUMAR THAKKAR			R	 26,350.00					    1,716.00	J11W ORC	
2426457	J11	QASHQAI2PCST	NSW	30517	Suttons Homebush Nissan	May 2017	14/01/2018	MR SNAKYKUMAR THAKKAR			18/01/2018	DTE01H		MR SNAKYKUMAR THAKKAR			R	 26,350.00					    1,363.63	QASHQAI RETAIL BONUS	
2428491	J11	QASHQAI2PCST	NSW	30517	Suttons Homebush Nissan	May 2017	25/02/2018	MR TERRY WALSH			28/02/2018	DTX16D		MR TERRY WALSH			R	 25,900.00					    1,658.00	J11W ORC	
2428491	J11	QASHQAI2PCST	NSW	30517	Suttons Homebush Nissan	May 2017	25/02/2018	MR TERRY WALSH			28/02/2018	DTX16D		MR TERRY WALSH			R	 25,900.00					    1,363.63	QASHQAI RETAIL BONUS	
2428428	J11	QASHQAI2PCST	NSW	30517	Suttons Homebush Nissan	May 2017	11/09/2017	MS KAREN YOUNG			13/09/2017	DQN76Y		MS KAREN YOUNG			R	 25,900.00					    1,745.00	J11W ORC	
2428428	J11	QASHQAI2PCST	NSW	30517	Suttons Homebush Nissan	May 2017	11/09/2017	MS KAREN YOUNG			13/09/2017	DQN76Y		MS KAREN YOUNG			R	 25,900.00					    1,363.63	J11W RETAIL BONUS	
2439028	J11	QASHQAI2PCST	NSW	30517	Suttons Homebush Nissan	Jun 2017	10/09/2017	MR KRISTEN ASHTON			18/09/2017	DQN77C		MR KRISTEN ASHTON			R	 26,350.00					    1,781.00	J11W ORC	
2439028	J11	QASHQAI2PCST	NSW	30517	Suttons Homebush Nissan	Jun 2017	10/09/2017	MR KRISTEN ASHTON			18/09/2017	DQN77C		MR KRISTEN ASHTON			R	 26,350.00					    1,363.63	J11W RETAIL BONUS	
2434106	J11	QASHQAI2PCST	NSW	30517	Suttons Homebush Nissan	Jun 2017	22/11/2017	BURWOOD COUNCIL			29/11/2017	CN77YH		BURWOOD COUNCIL	BURWOOD COUNCIL	142577	L	 25,900.00					      454.55	NOV 17 CLOSING BONUS	
2433297	J11	QASHQAI2PCST	NSW	30517	Suttons Homebush Nissan	Jun 2017	07/01/2018	MR ALEX NATERA			10/01/2018	DTE01C		MR ALEX NATERA			R	 26,350.00					    1,686.00	J11W ORC	
2433297	J11	QASHQAI2PCST	NSW	30517	Suttons Homebush Nissan	Jun 2017	07/01/2018	MR ALEX NATERA			10/01/2018	DTE01C		MR ALEX NATERA			R	 26,350.00					    1,363.63	QASHQAI RETAIL BONUS	
2433292	J11	QASHQAI2PCST	NSW	30517	Suttons Homebush Nissan	Jun 2017	10/09/2017	MR ANDREW PAPADOPOULOS			18/09/2017	DQN77B		MR ANDREW PAPADOPOULOS			R	 26,350.00					    1,784.00	J11W ORC	
2433292	J11	QASHQAI2PCST	NSW	30517	Suttons Homebush Nissan	Jun 2017	10/09/2017	MR ANDREW PAPADOPOULOS			18/09/2017	DQN77B		MR ANDREW PAPADOPOULOS			R	 26,350.00					    1,363.63	J11W RETAIL BONUS	
2439010	J11	QASHQAI2PCST	NSW	30517	Suttons Homebush Nissan	Jun 2017	30/09/2017	CHRIS OBRIEN LIFEHOUSE			30/09/2017	TBA		CHRIS OBRIEN LIFEHOUSE			R	 26,350.00					    2,029.00	J11W ORC	
2439010	J11	QASHQAI2PCST	NSW	30517	Suttons Homebush Nissan	Jun 2017	30/09/2017	CHRIS OBRIEN LIFEHOUSE			30/09/2017	TBA		CHRIS OBRIEN LIFEHOUSE			R	 26,350.00					    1,363.63	QASHQAI RETAIL BONUS - PETROL	
2426402	J11	QASHQAI2PCST	NSW	30517	Suttons Homebush Nissan	Jun 2017	11/09/2017	MISS HYE RIN KIM			25/09/2017	TBA		MISS HYE RIN KIM			R	 25,900.00					    1,823.00	J11W ORC	
2426402	J11	QASHQAI2PCST	NSW	30517	Suttons Homebush Nissan	Jun 2017	11/09/2017	MISS HYE RIN KIM			25/09/2017	TBA		MISS HYE RIN KIM			R	 25,900.00					    1,363.63	J11W RETAIL BONUS	
2432215	J11	QASHQAI2PCST	NSW	30517	Suttons Homebush Nissan	Jun 2017	11/12/2017	COUPLE ARTHUR & JEANETTE RODRIGUES			18/12/2017	DSS34Q		COUPLE ARTHUR & JEANETTE RODRIGUES			R	 25,900.00					    1,782.00	J11W ORC	
2432215	J11	QASHQAI2PCST	NSW	30517	Suttons Homebush Nissan	Jun 2017	11/12/2017	COUPLE ARTHUR & JEANETTE RODRIGUES			18/12/2017	DSS34Q		COUPLE ARTHUR & JEANETTE RODRIGUES			R	 25,900.00					    1,363.63	QASHQAI RETAIL BONUS	
2389976	J11	QASHQAI2PCST	NSW	30517	Suttons Homebush Nissan	Nov 2016					31/07/2017	DQW91Q	25/10/2017	MISS BRITTNEY QUINN			R	 26,350.00					    1,577.00	J11W ORC	
2389976	J11	QASHQAI2PCST	NSW	30517	Suttons Homebush Nissan	Nov 2016					31/07/2017	DQW91Q	25/10/2017	MISS BRITTNEY QUINN			R	 26,350.00					    1,363.63	QASHQAI RETAIL BONUS	
2389976	J11	QASHQAI2PCST	NSW	30517	Suttons Homebush Nissan	Nov 2016					31/07/2017	DQW91Q	25/10/2017	MISS BRITTNEY QUINN			R	 26,350.00					      454.54	J11W AGED STOCK BONUS	
2389976	J11	QASHQAI2PCST	NSW	30517	Suttons Homebush Nissan	Nov 2016					31/07/2017	DQW91Q	25/10/2017	MISS BRITTNEY QUINN			R	 26,350.00					      211.14	CVP JULY 2017	
2389976	J11	QASHQAI2PCST	NSW	30517	Suttons Homebush Nissan	Nov 2016					31/07/2017	DQW91Q	25/10/2017	MISS BRITTNEY QUINN			R	 26,350.00					      233.76	CVP AUGUST 2017	
2389976	J11	QASHQAI2PCST	NSW	30517	Suttons Homebush Nissan	Nov 2016					31/07/2017	DQW91Q	25/10/2017	MISS BRITTNEY QUINN			R	 26,350.00					      192.51	CVP SEPTEMBER 2017	
2391068	J11	QASHQAI2PCST	NSW	30517	Suttons Homebush Nissan	Nov 2016	20/08/2017	MR JUNG UK KIM			29/08/2017	DQC62H		MR JUNG UK KIM			R	 25,900.00					    1,751.00	J11W ORC	
2391068	J11	QASHQAI2PCST	NSW	30517	Suttons Homebush Nissan	Nov 2016	20/08/2017	MR JUNG UK KIM			29/08/2017	DQC62H		MR JUNG UK KIM			R	 25,900.00					    2,272.72	J11W RETAIL BONUS	
2391068	J11	QASHQAI2PCST	NSW	30517	Suttons Homebush Nissan	Nov 2016	20/08/2017	MR JUNG UK KIM			29/08/2017	DQC62H		MR JUNG UK KIM			R	 25,900.00					      454.54	J11W AGED STOCK BONUS	
2391113	J11	QASHQAI2PCST	NSW	30517	Suttons Homebush Nissan	Nov 2016					28/08/2017	DQC62E	11/12/2017	MS COLLEEN PARKES			R	 26,350.00					    2,019.00	J11W ORC	
2391113	J11	QASHQAI2PCST	NSW	30517	Suttons Homebush Nissan	Nov 2016					28/08/2017	DQC62E	11/12/2017	MS COLLEEN PARKES			R	 26,350.00					      454.54	J11W AGED STOCK BONUS	
2391113	J11	QASHQAI2PCST	NSW	30517	Suttons Homebush Nissan	Nov 2016					28/08/2017	DQC62E	11/12/2017	MS COLLEEN PARKES			R	 26,350.00					    1,363.63	QASHQAI RETAIL BONUS	
2391113	J11	QASHQAI2PCST	NSW	30517	Suttons Homebush Nissan	Nov 2016					28/08/2017	DQC62E	11/12/2017	MS COLLEEN PARKES			R	 26,350.00					      233.76	CVP AUGUST 2017	
2391113	J11	QASHQAI2PCST	NSW	30517	Suttons Homebush Nissan	Nov 2016					28/08/2017	DQC62E	11/12/2017	MS COLLEEN PARKES			R	 26,350.00					      192.51	CVP SEPTEMBER 2017	
2391113	J11	QASHQAI2PCST	NSW	30517	Suttons Homebush Nissan	Nov 2016					28/08/2017	DQC62E	11/12/2017	MS COLLEEN PARKES			R	 26,350.00					      192.51	CVP OCTOBER 2017	
2391113	J11	QASHQAI2PCST	NSW	30517	Suttons Homebush Nissan	Nov 2016					28/08/2017	DQC62E	11/12/2017	MS COLLEEN PARKES			R	 26,350.00					      181.81	CVP NOVEMBER 2017	
2391114	J11	QASHQAI2PCST	NSW	30517	Suttons Homebush Nissan	Nov 2016					29/12/2017	DSS35W	29/03/2018	SUTTONS HOMEBUSH NISSAN			X	 26,350.00					    1,891.00	J11W ORC	
2391114	J11	QASHQAI2PCST	NSW	30517	Suttons Homebush Nissan	Nov 2016					29/12/2017	DSS35W	29/03/2018	SUTTONS HOMEBUSH NISSAN			X	 26,350.00					    1,363.63	QASHQAI RETAIL BONUS	
2391114	J11	QASHQAI2PCST	NSW	30517	Suttons Homebush Nissan	Nov 2016					29/12/2017	DSS35W	29/03/2018	SUTTONS HOMEBUSH NISSAN			X	 26,350.00					      187.01	CVP DECEMBER 2017	
2391114	J11	QASHQAI2PCST	NSW	30517	Suttons Homebush Nissan	Nov 2016					29/12/2017	DSS35W	29/03/2018	SUTTONS HOMEBUSH NISSAN			X	 26,350.00					      204.54	CVP JANUARY 2018	
2391114	J11	QASHQAI2PCST	NSW	30517	Suttons Homebush Nissan	Nov 2016					29/12/2017	DSS35W	29/03/2018	SUTTONS HOMEBUSH NISSAN			X	 26,350.00					      218.18	CVP FEBRUARY 2018	
2390973	J11	QASHQAI2PCST	NSW	30517	Suttons Homebush Nissan	Nov 2016					21/07/2017	DPS92G	28/08/2017	MR CONSTANTINE PERIS			R	 26,350.00					    2,022.00	J11W ORC	
2390973	J11	QASHQAI2PCST	NSW	30517	Suttons Homebush Nissan	Nov 2016					21/07/2017	DPS92G	28/08/2017	MR CONSTANTINE PERIS			R	 26,350.00					    2,272.72	J11W RETAIL BONUS	
2390973	J11	QASHQAI2PCST	NSW	30517	Suttons Homebush Nissan	Nov 2016					21/07/2017	DPS92G	28/08/2017	MR CONSTANTINE PERIS			R	 26,350.00					      454.54	J11W AGED STOCK BONUS	
2390973	J11	QASHQAI2PCST	NSW	30517	Suttons Homebush Nissan	Nov 2016					21/07/2017	DPS92G	28/08/2017	MR CONSTANTINE PERIS			R	 26,350.00					      211.14	CVP JULY 2017	
2391014	J11	QASHQAI2PCST	NSW	30517	Suttons Homebush Nissan	Nov 2016	29/10/2017	MRS MARIA LOIUSA CAPCO			31/10/2017	DSG18L		MRS MARIA LOIUSA CAPCO			R	 26,350.00					    1,796.00	J11W ORC	
2391014	J11	QASHQAI2PCST	NSW	30517	Suttons Homebush Nissan	Nov 2016	29/10/2017	MRS MARIA LOIUSA CAPCO			31/10/2017	DSG18L		MRS MARIA LOIUSA CAPCO			R	 26,350.00					    1,363.63	QASHQAI RETAIL BONUS	
2391014	J11	QASHQAI2PCST	NSW	30517	Suttons Homebush Nissan	Nov 2016	29/10/2017	MRS MARIA LOIUSA CAPCO			31/10/2017	DSG18L		MRS MARIA LOIUSA CAPCO			R	 26,350.00					      454.54	J11W AGED STOCK BONUS	
2399921	J11	QASHQAI2PCST	NSW	30517	Suttons Homebush Nissan	Jan 2017	25/02/2018	MR CHANG LEE			28/02/2018	DTX16F		MR CHANG LEE			R	 25,900.00					    1,688.00	J11W ORC	
2399921	J11	QASHQAI2PCST	NSW	30517	Suttons Homebush Nissan	Jan 2017	25/02/2018	MR CHANG LEE			28/02/2018	DTX16F		MR CHANG LEE			R	 25,900.00					    1,363.63	QASHQAI RETAIL BONUS	
2406073	J11	QASHQAI2PCST	NSW	30517	Suttons Homebush Nissan	Feb 2017	16/07/2017	MR SUN KIM			24/07/2017	DNH77T		MR SUN KIM			R	 26,350.00					    1,820.00	J11W ORC	
2406073	J11	QASHQAI2PCST	NSW	30517	Suttons Homebush Nissan	Feb 2017	16/07/2017	MR SUN KIM			24/07/2017	DNH77T		MR SUN KIM			R	 26,350.00					    2,272.72	J11W RETAIL BONUS	
2448318	J11	QASHQAI2PCSTL2	NSW	30517	Suttons Homebush Nissan	Sep 2017	19/02/2018	MR ANTONIO SAVESKI			28/02/2018	DTX17Y		MR ANTONIO SAVESKI			R	 30,440.91					      318.18	LOYALTY BONUS ADDED MANUALLY	
2448318	J11	QASHQAI2PCSTL2	NSW	30517	Suttons Homebush Nissan	Sep 2017	19/02/2018	MR ANTONIO SAVESKI			28/02/2018	DTX17Y		MR ANTONIO SAVESKI			R	 30,440.91							
2447258	J11	QASHQAI2PCSTL2	NSW	30517	Suttons Homebush Nissan	Sep 2017	18/02/2018	MR SAMBHU PRASAD MAHARAJ			28/02/2018	EAF87X		MR SAMBHU PRASAD MAHARAJ			R	 30,440.91							
2447350	J11	QASHQAI2PCSTL2	NSW	30517	Suttons Homebush Nissan	Sep 2017					30/11/2017	DSS34V	30/05/2018	SUTTONS HOMEBUSH NISSAN			D	 29,990.91					      454.54	J11W AGED BONUS SERIES 2	
2447350	J11	QASHQAI2PCSTL2	NSW	30517	Suttons Homebush Nissan	Sep 2017					30/11/2017	DSS34V	30/05/2018	SUTTONS HOMEBUSH NISSAN			D	 29,990.91					      939.00	J11W ON ROAD COSTS - SERIES 2_CONTRIBUTION	
2447350	J11	QASHQAI2PCSTL2	NSW	30517	Suttons Homebush Nissan	Sep 2017					30/11/2017	DSS34V	30/05/2018	SUTTONS HOMEBUSH NISSAN			D	 29,990.91					    1,363.64	NOV 17 J11 SER2 LAM FOR DEMO	
2447350	J11	QASHQAI2PCSTL2	NSW	30517	Suttons Homebush Nissan	Sep 2017					30/11/2017	DSS34V	30/05/2018	SUTTONS HOMEBUSH NISSAN			D	 29,990.91					      181.81	CVP NOVEMBER 2017	
2447350	J11	QASHQAI2PCSTL2	NSW	30517	Suttons Homebush Nissan	Sep 2017					30/11/2017	DSS34V	30/05/2018	SUTTONS HOMEBUSH NISSAN			D	 29,990.91					      187.01	CVP DECEMBER 2017	
2447350	J11	QASHQAI2PCSTL2	NSW	30517	Suttons Homebush Nissan	Sep 2017					30/11/2017	DSS34V	30/05/2018	SUTTONS HOMEBUSH NISSAN			D	 29,990.91					      204.54	CVP JANUARY 2018	
2447350	J11	QASHQAI2PCSTL2	NSW	30517	Suttons Homebush Nissan	Sep 2017					30/11/2017	DSS34V	30/05/2018	SUTTONS HOMEBUSH NISSAN			D	 29,990.91					      218.18	CVP FEBRUARY 2018	
2447350	J11	QASHQAI2PCSTL2	NSW	30517	Suttons Homebush Nissan	Sep 2017					30/11/2017	DSS34V	30/05/2018	SUTTONS HOMEBUSH NISSAN			D	 29,990.91					      251.74	CVP MARCH 2018	
2447350	J11	QASHQAI2PCSTL2	NSW	30517	Suttons Homebush Nissan	Sep 2017					30/11/2017	DSS34V	30/05/2018	SUTTONS HOMEBUSH NISSAN			D	 29,990.91					      225.70	CVP APRIL 2018	
2447352	J11	QASHQAI2PCSTL2	NSW	30517	Suttons Homebush Nissan	Sep 2017					31/01/2018	DTG45W	23/02/2019	SUTTONS HOMEBUSH NISSAN			X	 29,990.91					    1,802.64	Z CAR FEB	
2447352	J11	QASHQAI2PCSTL2	NSW	30517	Suttons Homebush Nissan	Sep 2017					31/01/2018	DTG45W	23/02/2019	SUTTONS HOMEBUSH NISSAN			X	 29,990.91					      204.54	CVP JANUARY 2018	
2447352	J11	QASHQAI2PCSTL2	NSW	30517	Suttons Homebush Nissan	Sep 2017					31/01/2018	DTG45W	23/02/2019	SUTTONS HOMEBUSH NISSAN			X	 29,990.91					      218.18	CVP FEBRUARY 2018	
2447352	J11	QASHQAI2PCSTL2	NSW	30517	Suttons Homebush Nissan	Sep 2017					31/01/2018	DTG45W	23/02/2019	SUTTONS HOMEBUSH NISSAN			X	 29,990.91					      251.74	CVP MARCH 2018	
2447352	J11	QASHQAI2PCSTL2	NSW	30517	Suttons Homebush Nissan	Sep 2017					31/01/2018	DTG45W	23/02/2019	SUTTONS HOMEBUSH NISSAN			X	 29,990.91					      225.85	CVP APRIL 2018	
2447352	J11	QASHQAI2PCSTL2	NSW	30517	Suttons Homebush Nissan	Sep 2017					31/01/2018	DTG45W	23/02/2019	SUTTONS HOMEBUSH NISSAN			X	 29,990.91					      233.76	CVP MAY 2018	
2421877	J11	QASHQAI2PCSTNS	NSW	30517	Suttons Homebush Nissan	Apr 2017	23/07/2017	DATA VISION TECHNOLOGY P/L			31/07/2017	TBA		DATA VISION TECHNOLOGY P/L			R	 26,531.82					    1,939.00	J11W ORC	
2421877	J11	QASHQAI2PCSTNS	NSW	30517	Suttons Homebush Nissan	Apr 2017	23/07/2017	DATA VISION TECHNOLOGY P/L			31/07/2017	TBA		DATA VISION TECHNOLOGY P/L			R	 26,531.82					    1,818.18	J11W RETAIL BONUS	
2421415	J11	QASHQAI2PCSTNS	NSW	30517	Suttons Homebush Nissan	Apr 2017	08/10/2017	MR NICHOLAS MOGILIN			16/10/2017	DQW91F		MR NICHOLAS MOGILIN			R	 26,531.82					    1,862.00	J11W ORC	
2421415	J11	QASHQAI2PCSTNS	NSW	30517	Suttons Homebush Nissan	Apr 2017	08/10/2017	MR NICHOLAS MOGILIN			16/10/2017	DQW91F		MR NICHOLAS MOGILIN			R	 26,531.82					    1,363.63	QASHQAI RETAIL BONUS	
2421444	J11	QASHQAI2PCSTNS	NSW	30517	Suttons Homebush Nissan	Apr 2017	11/09/2017	MR DAVID GORGA			18/09/2017	DQN77A		MR DAVID GORGA			R	 26,531.82					    1,811.00	J11W ORC	
2421444	J11	QASHQAI2PCSTNS	NSW	30517	Suttons Homebush Nissan	Apr 2017	11/09/2017	MR DAVID GORGA			18/09/2017	DQN77A		MR DAVID GORGA			R	 26,531.82					    1,363.63	J11W RETAIL BONUS	
2421442	J11	QASHQAI2PCSTNS	NSW	30517	Suttons Homebush Nissan	Apr 2017	15/08/2017	MR LIFAN WANG			21/08/2017	DQC61L		MR LIFAN WANG			R	 26,081.82					    1,772.00	J11W ORC	
2421442	J11	QASHQAI2PCSTNS	NSW	30517	Suttons Homebush Nissan	Apr 2017	15/08/2017	MR LIFAN WANG			21/08/2017	DQC61L		MR LIFAN WANG			R	 26,081.82					    1,818.18	J11W RETAIL BONUS	
2421445	J11	QASHQAI2PCSTNS	NSW	30517	Suttons Homebush Nissan	Apr 2017	17/09/2017	MR ROBERT MELLINO			21/09/2017	DQN77K		MR ROBERT MELLINO			R	 26,081.82					    1,820.00	J11W ORC	
2421445	J11	QASHQAI2PCSTNS	NSW	30517	Suttons Homebush Nissan	Apr 2017	17/09/2017	MR ROBERT MELLINO			21/09/2017	DQN77K		MR ROBERT MELLINO			R	 26,081.82					    1,363.63	J11W RETAIL BONUS	
2421443	J11	QASHQAI2PCSTNS	NSW	30517	Suttons Homebush Nissan	Apr 2017	30/07/2017	MR HA SUP LEE			31/07/2017	DPS93J		MR HA SUP LEE			R	 26,531.82					    1,796.00	J11W ORC	
2421443	J11	QASHQAI2PCSTNS	NSW	30517	Suttons Homebush Nissan	Apr 2017	30/07/2017	MR HA SUP LEE			31/07/2017	DPS93J		MR HA SUP LEE			R	 26,531.82					    1,818.18	J11W RETAIL BONUS	
2432476	J11	QASHQAI2PCSTNS	NSW	30517	Suttons Homebush Nissan	Jun 2017	02/10/2017	MR ABDOU SANGARE			09/10/2017	DQW90W		MR ABDOU SANGARE			R	 26,081.82					    1,796.00	J11W ORC	
2432476	J11	QASHQAI2PCSTNS	NSW	30517	Suttons Homebush Nissan	Jun 2017	02/10/2017	MR ABDOU SANGARE			09/10/2017	DQW90W		MR ABDOU SANGARE			R	 26,081.82					    1,363.63	QASHQAI RETAIL BONUS	
2432480	J11	QASHQAI2PCSTNS	NSW	30517	Suttons Homebush Nissan	Jun 2017	01/11/2017	PRISUM PTY LTD			10/11/2017	DSG19A		PRISUM PTY LTD			R	 26,081.82					    1,999.00	J11W ORC	
2432480	J11	QASHQAI2PCSTNS	NSW	30517	Suttons Homebush Nissan	Jun 2017	01/11/2017	PRISUM PTY LTD			10/11/2017	DSG19A		PRISUM PTY LTD			R	 26,081.82					    1,363.63	QASHQAI RETAIL BONUS	
2432497	J11	QASHQAI2PCSTNS	NSW	30517	Suttons Homebush Nissan	Jun 2017	27/12/2017	MR CHI ZHANG			29/12/2017	DSS35R		MR CHI ZHANG			R	 26,081.82					    1,671.00	J11W ORC	
2432497	J11	QASHQAI2PCSTNS	NSW	30517	Suttons Homebush Nissan	Jun 2017	27/12/2017	MR CHI ZHANG			29/12/2017	DSS35R		MR CHI ZHANG			R	 26,081.82					    1,818.18	QASHQAI RETAIL BONUS	
2432497	J11	QASHQAI2PCSTNS	NSW	30517	Suttons Homebush Nissan	Jun 2017	27/12/2017	MR CHI ZHANG			29/12/2017	DSS35R		MR CHI ZHANG			R	 26,081.82					      681.81	BOXING DAY SALE	
2447424	J11	QASHQAI2PCST2	NSW	30517	Suttons Homebush Nissan	Sep 2017					30/11/2017	DTE01F	29/11/2018	SUTTONS HOMEBUSH NISSAN			D	 26,804.55					      319.00	J11W ORC ROUNDING	
2447424	J11	QASHQAI2PCST2	NSW	30517	Suttons Homebush Nissan	Sep 2017					30/11/2017	DTE01F	29/11/2018	SUTTONS HOMEBUSH NISSAN			D	 26,804.55					    2,090.90	QASHQAI RETAIL BONUS_S2	
2447424	J11	QASHQAI2PCST2	NSW	30517	Suttons Homebush Nissan	Sep 2017					30/11/2017	DTE01F	29/11/2018	SUTTONS HOMEBUSH NISSAN			D	 26,804.55					    1,363.64	NOV 17 J11 SER2 LAM FOR DEMO	
2447424	J11	QASHQAI2PCST2	NSW	30517	Suttons Homebush Nissan	Sep 2017					30/11/2017	DTE01F	29/11/2018	SUTTONS HOMEBUSH NISSAN			D	 26,804.55					      152.22	CVP SEPTEMBER	
2447424	J11	QASHQAI2PCST2	NSW	30517	Suttons Homebush Nissan	Sep 2017					30/11/2017	DTE01F	29/11/2018	SUTTONS HOMEBUSH NISSAN			D	 26,804.55					      181.81	CVP NOVEMBER 2017	
2447424	J11	QASHQAI2PCST2	NSW	30517	Suttons Homebush Nissan	Sep 2017					30/11/2017	DTE01F	29/11/2018	SUTTONS HOMEBUSH NISSAN			D	 26,804.55					      187.01	CVP DECEMBER 2017	
2447424	J11	QASHQAI2PCST2	NSW	30517	Suttons Homebush Nissan	Sep 2017					30/11/2017	DTE01F	29/11/2018	SUTTONS HOMEBUSH NISSAN			D	 26,804.55					      204.54	CVP JANUARY 2018	
2447424	J11	QASHQAI2PCST2	NSW	30517	Suttons Homebush Nissan	Sep 2017					30/11/2017	DTE01F	29/11/2018	SUTTONS HOMEBUSH NISSAN			D	 26,804.55					      218.18	CVP FEBRUARY 2018	
2447424	J11	QASHQAI2PCST2	NSW	30517	Suttons Homebush Nissan	Sep 2017					30/11/2017	DTE01F	29/11/2018	SUTTONS HOMEBUSH NISSAN			D	 26,804.55					      251.74	CVP MARCH 2018	
2447424	J11	QASHQAI2PCST2	NSW	30517	Suttons Homebush Nissan	Sep 2017					30/11/2017	DTE01F	29/11/2018	SUTTONS HOMEBUSH NISSAN			D	 26,804.55					      225.70	CVP APRIL 2018	
2455043	J11	QASHQAI2PCST2	NSW	30517	Suttons Homebush Nissan	Oct 2017					31/01/2018	DTG45V	18/06/2018	SUTTONS HOMEBUSH NISSAN			X	 26,804.55					      819.00	J11W ON ROAD COSTS - SERIES 2_CONTRIBUTION	
2455043	J11	QASHQAI2PCST2	NSW	30517	Suttons Homebush Nissan	Oct 2017					31/01/2018	DTG45V	18/06/2018	SUTTONS HOMEBUSH NISSAN			X	 26,804.55					      454.54	J11W AGED BONUS SERIES 2	
2455043	J11	QASHQAI2PCST2	NSW	30517	Suttons Homebush Nissan	Oct 2017					31/01/2018	DTG45V	18/06/2018	SUTTONS HOMEBUSH NISSAN			X	 26,804.55					      204.54	CVP JANUARY 2018	
2455043	J11	QASHQAI2PCST2	NSW	30517	Suttons Homebush Nissan	Oct 2017					31/01/2018	DTG45V	18/06/2018	SUTTONS HOMEBUSH NISSAN			X	 26,804.55					      218.18	CVP FEBRUARY 2018	
2455043	J11	QASHQAI2PCST2	NSW	30517	Suttons Homebush Nissan	Oct 2017					31/01/2018	DTG45V	18/06/2018	SUTTONS HOMEBUSH NISSAN			X	 26,804.55					      251.95	CVP MARCH 2018	
2455043	J11	QASHQAI2PCST2	NSW	30517	Suttons Homebush Nissan	Oct 2017					31/01/2018	DTG45V	18/06/2018	SUTTONS HOMEBUSH NISSAN			X	 26,804.55					      225.70	CVP APRIL 2018	
2455043	J11	QASHQAI2PCST2	NSW	30517	Suttons Homebush Nissan	Oct 2017					31/01/2018	DTG45V	18/06/2018	SUTTONS HOMEBUSH NISSAN			X	 26,804.55					      233.76	CVP MAY 2018	
2455144	J11	QASHQAI2PCST2	NSW	30517	Suttons Homebush Nissan	Oct 2017					31/01/2018	DVK70S	18/04/2018	SUTTONS HOMEBUSH NISSAN			X	 26,354.55					    1,832.00	J11W FREE ON ROAD COSTS - SERIES 2	
2455144	J11	QASHQAI2PCST2	NSW	30517	Suttons Homebush Nissan	Oct 2017					31/01/2018	DVK70S	18/04/2018	SUTTONS HOMEBUSH NISSAN			X	 26,354.55					      204.54	CVP JANUARY 2018	
2455144	J11	QASHQAI2PCST2	NSW	30517	Suttons Homebush Nissan	Oct 2017					31/01/2018	DVK70S	18/04/2018	SUTTONS HOMEBUSH NISSAN			X	 26,354.55					      218.18	CVP FEBRUARY 2018	
2455144	J11	QASHQAI2PCST2	NSW	30517	Suttons Homebush Nissan	Oct 2017					31/01/2018	DVK70S	18/04/2018	SUTTONS HOMEBUSH NISSAN			X	 26,354.55					      251.74	CVP MARCH 2018	
2460436	J11	QASHQAI2PCST2	NSW	30517	Suttons Homebush Nissan	Nov 2017					28/02/2018	DTX16Y	31/10/2018	SUTTONS HOMEBUSH NISSAN			D	 26,854.55					      319.00	J11W ORC ROUNDING	
2460436	J11	QASHQAI2PCST2	NSW	30517	Suttons Homebush Nissan	Nov 2017					28/02/2018	DTX16Y	31/10/2018	SUTTONS HOMEBUSH NISSAN			D	 26,854.55					    2,090.90	QASHQAI RETAIL BONUS_S2	
2460436	J11	QASHQAI2PCST2	NSW	30517	Suttons Homebush Nissan	Nov 2017					28/02/2018	DTX16Y	31/10/2018	SUTTONS HOMEBUSH NISSAN			D	 26,854.55					      152.22	CVP SEPTEMBER	
2460436	J11	QASHQAI2PCST2	NSW	30517	Suttons Homebush Nissan	Nov 2017					28/02/2018	DTX16Y	31/10/2018	SUTTONS HOMEBUSH NISSAN			D	 26,854.55					      218.18	CVP FEBRUARY 2018	
2460436	J11	QASHQAI2PCST2	NSW	30517	Suttons Homebush Nissan	Nov 2017					28/02/2018	DTX16Y	31/10/2018	SUTTONS HOMEBUSH NISSAN			D	 26,854.55					      251.74	CVP MARCH 2018	
2460436	J11	QASHQAI2PCST2	NSW	30517	Suttons Homebush Nissan	Nov 2017					28/02/2018	DTX16Y	31/10/2018	SUTTONS HOMEBUSH NISSAN			D	 26,854.55					      225.70	CVP APRIL 2018	
2460436	J11	QASHQAI2PCST2	NSW	30517	Suttons Homebush Nissan	Nov 2017					28/02/2018	DTX16Y	31/10/2018	SUTTONS HOMEBUSH NISSAN			D	 26,854.55					      233.76	CVP MAY 2018	
2460436	J11	QASHQAI2PCST2	NSW	30517	Suttons Homebush Nissan	Nov 2017					28/02/2018	DTX16Y	31/10/2018	SUTTONS HOMEBUSH NISSAN			D	 26,854.55					      163.63	CVP JULY 2018	
2460437	J11	QASHQAI2PCST2	NSW	30517	Suttons Homebush Nissan	Nov 2017	05/03/2018	SG FLEET			12/03/2018	CN98YH		SG FLEET	SG Fleet	106820	S	 26,354.55	73905	 2,589.55	 1,500.00	  400.00	    1,500.00	Dealer Fleet Claim authorised 13/03/2018	
2460423	J11	QASHQAI2PCST2	NSW	30517	Suttons Homebush Nissan	Nov 2017	11/02/2018	MR VICTOR DUNSTAN FELIX			19/02/2018	DTX17M		MR VICTOR DUNSTAN FELIX			R	 26,854.55					      318.18	LOYALTY BONUS ADDED MANUALLY	
2460423	J11	QASHQAI2PCST2	NSW	30517	Suttons Homebush Nissan	Nov 2017	11/02/2018	MR VICTOR DUNSTAN FELIX			19/02/2018	DTX17M		MR VICTOR DUNSTAN FELIX			R	 26,854.55							
2460737	J11	QASHQAI2PCST2	NSW	30517	Suttons Homebush Nissan	Nov 2017	31/01/2018	MR ANTONIO SAVESKI			31/01/2018	TBA		MR ANTONIO SAVESKI			R	 26,854.55							
2414681	J11	QASHQAI2PCTI	NSW	30517	Suttons Homebush Nissan	Mar 2017	04/07/2017	MRS LALRISSA DIDIC			14/07/2017	DNH77L		MRS LALRISSA DIDIC			R	 33,627.27					    2,009.00	J11W ORC	
2414681	J11	QASHQAI2PCTI	NSW	30517	Suttons Homebush Nissan	Mar 2017	04/07/2017	MRS LALRISSA DIDIC			14/07/2017	DNH77L		MRS LALRISSA DIDIC			R	 33,627.27					    2,272.72	J11W RETAIL BONUS	
2406083	J11	QASHQAI2PCTI	NSW	30517	Suttons Homebush Nissan	Mar 2017	03/07/2017	SUNSET KEBABS HOLDINGS P/L			10/07/2017	DNH77E		SUNSET KEBABS HOLDINGS P/L			R	 34,077.27					    2,335.00	J11W ORC	
2422262	J11	QASHQAI2PCTI	NSW	30517	Suttons Homebush Nissan	Apr 2017	15/08/2017	MR SATHYANARAYANAN SRINIVASA			23/08/2017	DQC61Y		MR SATHYANARAYANAN SRINIVASA			R	 33,627.27					    2,158.00	J11W ORC	
2422262	J11	QASHQAI2PCTI	NSW	30517	Suttons Homebush Nissan	Apr 2017	15/08/2017	MR SATHYANARAYANAN SRINIVASA			23/08/2017	DQC61Y		MR SATHYANARAYANAN SRINIVASA			R	 33,627.27					    2,272.72	J11W RETAIL BONUS	
2426088	J11	QASHQAI2PCTI	NSW	30517	Suttons Homebush Nissan	May 2017	31/07/2017	MR JOHN REISSIS			31/07/2017	TBA		MR JOHN REISSIS			R	 33,627.27					    1,985.00	J11W ORC	
2426088	J11	QASHQAI2PCTI	NSW	30517	Suttons Homebush Nissan	May 2017	31/07/2017	MR JOHN REISSIS			31/07/2017	TBA		MR JOHN REISSIS			R	 33,627.27					    2,272.72	J11W RETAIL BONUS	
2426083	J11	QASHQAI2PCTI	NSW	30517	Suttons Homebush Nissan	May 2017	02/08/2017	MR HILAL CHANAOUI			07/08/2017	DPS93V		MR HILAL CHANAOUI			R	 34,077.27					    1,985.00	J11W ORC	
2426083	J11	QASHQAI2PCTI	NSW	30517	Suttons Homebush Nissan	May 2017	02/08/2017	MR HILAL CHANAOUI			07/08/2017	DPS93V		MR HILAL CHANAOUI			R	 34,077.27					    2,272.72	J11W RETAIL BONUS	
2426086	J11	QASHQAI2PCTI	NSW	30517	Suttons Homebush Nissan	May 2017	30/07/2017	MR BLAKE JOHN MANCA			31/07/2017	DQW90Z	13/10/2017	MR BLAKE JOHN MANCA			R	 33,627.27					    2,087.00	J11W ORC	
2426086	J11	QASHQAI2PCTI	NSW	30517	Suttons Homebush Nissan	May 2017	30/07/2017	MR BLAKE JOHN MANCA			31/07/2017	DQW90Z	13/10/2017	MR BLAKE JOHN MANCA			R	 33,627.27					    1,363.63	QASHQAI RETAIL BONUS	
2426086	J11	QASHQAI2PCTI	NSW	30517	Suttons Homebush Nissan	May 2017	30/07/2017	MR BLAKE JOHN MANCA			31/07/2017	DQW90Z	13/10/2017	MR BLAKE JOHN MANCA			R	 33,627.27					      233.76	CVP AUGUST 2017	
2426086	J11	QASHQAI2PCTI	NSW	30517	Suttons Homebush Nissan	May 2017	30/07/2017	MR BLAKE JOHN MANCA			31/07/2017	DQW90Z	13/10/2017	MR BLAKE JOHN MANCA			R	 33,627.27					      192.51	CVP SEPTEMBER 2017	
2426084	J11	QASHQAI2PCTI	NSW	30517	Suttons Homebush Nissan	May 2017	29/08/2017	MR PANKAJ KUMAR			31/08/2017	TBA		MR PANKAJ KUMAR			R	 34,077.27					    2,108.00	J11W ORC	
2426084	J11	QASHQAI2PCTI	NSW	30517	Suttons Homebush Nissan	May 2017	29/08/2017	MR PANKAJ KUMAR			31/08/2017	TBA		MR PANKAJ KUMAR			R	 34,077.27					    2,272.72	J11W RETAIL BONUS	
2426087	J11	QASHQAI2PCTI	NSW	30517	Suttons Homebush Nissan	May 2017	06/08/2017	MR BISHAL KUMAR BHANDARI			14/08/2017	DQC61D		MR BISHAL KUMAR BHANDARI			R	 34,077.27					    2,087.00	J11W ORC	
2426087	J11	QASHQAI2PCTI	NSW	30517	Suttons Homebush Nissan	May 2017	06/08/2017	MR BISHAL KUMAR BHANDARI			14/08/2017	DQC61D		MR BISHAL KUMAR BHANDARI			R	 34,077.27					    2,272.72	J11W RETAIL BONUS	
2409048	J11	QASHQAI2PCTI	NSW	30517	Suttons Homebush Nissan	May 2017	06/08/2017	MR RICHARD PANTOJA			21/08/2017	DQC61Q		MR RICHARD PANTOJA			R	 33,627.27					    2,129.00	J11W ORC	
2409048	J11	QASHQAI2PCTI	NSW	30517	Suttons Homebush Nissan	May 2017	06/08/2017	MR RICHARD PANTOJA			21/08/2017	DQC61Q		MR RICHARD PANTOJA			R	 33,627.27					    2,272.72	J11W RETAIL BONUS	
2426472	J11	QASHQAI2PCTI	NSW	30517	Suttons Homebush Nissan	May 2017	11/09/2017	MISS ERIN LANS			21/09/2017	DQN77P		MISS ERIN LANS			R	 34,077.27					    1,935.00	J11W ORC	
2426472	J11	QASHQAI2PCTI	NSW	30517	Suttons Homebush Nissan	May 2017	11/09/2017	MISS ERIN LANS			21/09/2017	DQN77P		MISS ERIN LANS			R	 34,077.27					    1,363.63	J11W RETAIL BONUS	
2429284	J11	QASHQAI2PCTI	NSW	30517	Suttons Homebush Nissan	May 2017	21/02/2018	MR ALEX TSANG			28/02/2018	DTX16J		MR ALEX TSANG			R	 34,077.27					    1,961.00	J11W ORC	
2429284	J11	QASHQAI2PCTI	NSW	30517	Suttons Homebush Nissan	May 2017	21/02/2018	MR ALEX TSANG			28/02/2018	DTX16J		MR ALEX TSANG			R	 34,077.27					    1,363.63	QASHQAI RETAIL BONUS	
2429548	J11	QASHQAI2PCTI	NSW	30517	Suttons Homebush Nissan	May 2017	06/08/2017	MISS EVONNE MORGAN			16/08/2017	DQC61A		MISS EVONNE MORGAN			R	 34,077.27					    1,985.00	J11W ORC	
2429548	J11	QASHQAI2PCTI	NSW	30517	Suttons Homebush Nissan	May 2017	06/08/2017	MISS EVONNE MORGAN			16/08/2017	DQC61A		MISS EVONNE MORGAN			R	 34,077.27					    2,272.72	J11W RETAIL BONUS	
2429432	J11	QASHQAI2PCTI	NSW	30517	Suttons Homebush Nissan	May 2017	31/07/2017	MR JIE WEN			31/07/2017	TBA		MR JIE WEN			R	 33,627.27					    1,611.00	J11W ORC	
2429432	J11	QASHQAI2PCTI	NSW	30517	Suttons Homebush Nissan	May 2017	31/07/2017	MR JIE WEN			31/07/2017	TBA		MR JIE WEN			R	 33,627.27					    2,272.72	J11W RETAIL BONUS	
2429219	J11	QASHQAI2PCTI	NSW	30517	Suttons Homebush Nissan	May 2017	30/11/2017	MR TUGLIO GALLINA			30/11/2017	TBA		MR TUGLIO GALLINA			R	 34,077.27					    1,974.00	J11W ORC	
2429219	J11	QASHQAI2PCTI	NSW	30517	Suttons Homebush Nissan	May 2017	30/11/2017	MR TUGLIO GALLINA			30/11/2017	TBA		MR TUGLIO GALLINA			R	 34,077.27					    1,363.63	QASHQAI RETAIL BONUS	
2429219	J11	QASHQAI2PCTI	NSW	30517	Suttons Homebush Nissan	May 2017	30/11/2017	MR TUGLIO GALLINA			30/11/2017	TBA		MR TUGLIO GALLINA			R	 34,077.27					      454.55	NOV 17 CLOSING BONUS	
2429253	J11	QASHQAI2PCTI	NSW	30517	Suttons Homebush Nissan	May 2017	10/12/2017	MR LOWENG CHAN			21/12/2017	DSS35B		MR LOWENG CHAN			R	 34,077.27					    1,523.00	J11W ORC	
2429253	J11	QASHQAI2PCTI	NSW	30517	Suttons Homebush Nissan	May 2017	10/12/2017	MR LOWENG CHAN			21/12/2017	DSS35B		MR LOWENG CHAN			R	 34,077.27					    1,363.63	QASHQAI RETAIL BONUS	
2429523	J11	QASHQAI2PCTI	NSW	30517	Suttons Homebush Nissan	May 2017	27/02/2018	COUPLE ELISA LEE & DANIEL KOH			28/02/2018	DXT17Z		COUPLE ELISA LEE & DANIEL KOH			R	 33,627.27					    2,004.00	J11W ORC	
2429523	J11	QASHQAI2PCTI	NSW	30517	Suttons Homebush Nissan	May 2017	27/02/2018	COUPLE ELISA LEE & DANIEL KOH			28/02/2018	DXT17Z		COUPLE ELISA LEE & DANIEL KOH			R	 33,627.27					    1,363.63	QASHQAI RETAIL BONUS	
2429523	J11	QASHQAI2PCTI	NSW	30517	Suttons Homebush Nissan	May 2017	27/02/2018	COUPLE ELISA LEE & DANIEL KOH			28/02/2018	DXT17Z		COUPLE ELISA LEE & DANIEL KOH			R	 33,627.27					      318.18	LOYALTY BONUS ADDED MANUALLY	
2429586	J11	QASHQAI2PCTI	NSW	30517	Suttons Homebush Nissan	May 2017					19/09/2017	DQN77W	12/02/2018	TIGER ELECTRICAL SOLUTIONS P/L			R	 34,077.27					    2,241.00	J11W ORC	
2429586	J11	QASHQAI2PCTI	NSW	30517	Suttons Homebush Nissan	May 2017					19/09/2017	DQN77W	12/02/2018	TIGER ELECTRICAL SOLUTIONS P/L			R	 34,077.27					    1,363.63	QASHQAI RETAIL BONUS	
2429586	J11	QASHQAI2PCTI	NSW	30517	Suttons Homebush Nissan	May 2017					19/09/2017	DQN77W	12/02/2018	TIGER ELECTRICAL SOLUTIONS P/L			R	 34,077.27					      192.51	CVP SEPTEMBER 2017	
2429586	J11	QASHQAI2PCTI	NSW	30517	Suttons Homebush Nissan	May 2017					19/09/2017	DQN77W	12/02/2018	TIGER ELECTRICAL SOLUTIONS P/L			R	 34,077.27					      192.51	CVP OCTOBER 2017	
2429586	J11	QASHQAI2PCTI	NSW	30517	Suttons Homebush Nissan	May 2017					19/09/2017	DQN77W	12/02/2018	TIGER ELECTRICAL SOLUTIONS P/L			R	 34,077.27					      181.81	CVP NOVEMBER 2017	
2429586	J11	QASHQAI2PCTI	NSW	30517	Suttons Homebush Nissan	May 2017					19/09/2017	DQN77W	12/02/2018	TIGER ELECTRICAL SOLUTIONS P/L			R	 34,077.27					      187.11	CVP DECEMBER 2017	
2429586	J11	QASHQAI2PCTI	NSW	30517	Suttons Homebush Nissan	May 2017					19/09/2017	DQN77W	12/02/2018	TIGER ELECTRICAL SOLUTIONS P/L			R	 34,077.27					      204.54	CVP JANUARY 2018	
2434123	J11	QASHQAI2PCTI	NSW	30517	Suttons Homebush Nissan	Jun 2017					19/09/2017	DQN77Y	23/01/2018	MR REUBEN VUONG			R	 34,077.27					    2,238.00	J11W ORC	
2434123	J11	QASHQAI2PCTI	NSW	30517	Suttons Homebush Nissan	Jun 2017					19/09/2017	DQN77Y	23/01/2018	MR REUBEN VUONG			R	 34,077.27					    1,363.63	QASHQAI RETAIL BONUS	
2434123	J11	QASHQAI2PCTI	NSW	30517	Suttons Homebush Nissan	Jun 2017					19/09/2017	DQN77Y	23/01/2018	MR REUBEN VUONG			R	 34,077.27					      192.51	CVP SEPTEMBER 2017	
2434123	J11	QASHQAI2PCTI	NSW	30517	Suttons Homebush Nissan	Jun 2017					19/09/2017	DQN77Y	23/01/2018	MR REUBEN VUONG			R	 34,077.27					      192.51	CVP OCTOBER 2017	
2434123	J11	QASHQAI2PCTI	NSW	30517	Suttons Homebush Nissan	Jun 2017					19/09/2017	DQN77Y	23/01/2018	MR REUBEN VUONG			R	 34,077.27					      181.81	CVP NOVEMBER 2017	
2434123	J11	QASHQAI2PCTI	NSW	30517	Suttons Homebush Nissan	Jun 2017					19/09/2017	DQN77Y	23/01/2018	MR REUBEN VUONG			R	 34,077.27					      187.01	CVP DECEMBER 2017	
2434125	J11	QASHQAI2PCTI	NSW	30517	Suttons Homebush Nissan	Jun 2017					19/09/2017	DQN77Z	24/08/2018	SUTTONS HOMEBUSH NISSAN			D	 34,077.27					    2,149.00	J11W ORC	
2434125	J11	QASHQAI2PCTI	NSW	30517	Suttons Homebush Nissan	Jun 2017					19/09/2017	DQN77Z	24/08/2018	SUTTONS HOMEBUSH NISSAN			D	 34,077.27					    1,363.63	QASHQAI RETAIL BONUS	
2434125	J11	QASHQAI2PCTI	NSW	30517	Suttons Homebush Nissan	Jun 2017					19/09/2017	DQN77Z	24/08/2018	SUTTONS HOMEBUSH NISSAN			D	 34,077.27							
2434125	J11	QASHQAI2PCTI	NSW	30517	Suttons Homebush Nissan	Jun 2017					19/09/2017	DQN77Z	24/08/2018	SUTTONS HOMEBUSH NISSAN			D	 34,077.27					      192.51	CVP SEPTEMBER 2017	
2434125	J11	QASHQAI2PCTI	NSW	30517	Suttons Homebush Nissan	Jun 2017					19/09/2017	DQN77Z	24/08/2018	SUTTONS HOMEBUSH NISSAN			D	 34,077.27					      192.51	CVP OCTOBER 2017	
2434125	J11	QASHQAI2PCTI	NSW	30517	Suttons Homebush Nissan	Jun 2017					19/09/2017	DQN77Z	24/08/2018	SUTTONS HOMEBUSH NISSAN			D	 34,077.27					      181.81	CVP NOVEMBER 2017	
2434125	J11	QASHQAI2PCTI	NSW	30517	Suttons Homebush Nissan	Jun 2017					19/09/2017	DQN77Z	24/08/2018	SUTTONS HOMEBUSH NISSAN			D	 34,077.27					      187.01	CVP DECEMBER 2017	
2434125	J11	QASHQAI2PCTI	NSW	30517	Suttons Homebush Nissan	Jun 2017					19/09/2017	DQN77Z	24/08/2018	SUTTONS HOMEBUSH NISSAN			D	 34,077.27					      204.54	CVP JANUARY 2018	
2434125	J11	QASHQAI2PCTI	NSW	30517	Suttons Homebush Nissan	Jun 2017					19/09/2017	DQN77Z	24/08/2018	SUTTONS HOMEBUSH NISSAN			D	 34,077.27					      218.18	CVP FEBRUARY 2018	
2433302	J11	QASHQAI2PCTI	NSW	30517	Suttons Homebush Nissan	Jun 2017	11/09/2017	MR DENNIS GENEROSO			18/09/2017	DQN77G		MR DENNIS GENEROSO			R	 33,627.27					    2,114.00	J11W ORC	
2433302	J11	QASHQAI2PCTI	NSW	30517	Suttons Homebush Nissan	Jun 2017	11/09/2017	MR DENNIS GENEROSO			18/09/2017	DQN77G		MR DENNIS GENEROSO			R	 33,627.27					    1,363.63	J11W RETAIL BONUS	
2433306	J11	QASHQAI2PCTI	NSW	30517	Suttons Homebush Nissan	Jun 2017					30/09/2017	DTX17B	09/02/2018	MRS ELIANA GUERRERO			R	 34,077.27					    1,895.00	J11W ORC	
2433306	J11	QASHQAI2PCTI	NSW	30517	Suttons Homebush Nissan	Jun 2017					30/09/2017	DTX17B	09/02/2018	MRS ELIANA GUERRERO			R	 34,077.27					    1,363.63	QASHQAI RETAIL BONUS	
2433306	J11	QASHQAI2PCTI	NSW	30517	Suttons Homebush Nissan	Jun 2017					30/09/2017	DTX17B	09/02/2018	MRS ELIANA GUERRERO			R	 34,077.27					      192.51	CVP SEPTEMBER 2017	
2433306	J11	QASHQAI2PCTI	NSW	30517	Suttons Homebush Nissan	Jun 2017					30/09/2017	DTX17B	09/02/2018	MRS ELIANA GUERRERO			R	 34,077.27					      192.51	CVP OCTOBER 2017	
2433306	J11	QASHQAI2PCTI	NSW	30517	Suttons Homebush Nissan	Jun 2017					30/09/2017	DTX17B	09/02/2018	MRS ELIANA GUERRERO			R	 34,077.27					      181.81	CVP NOVEMBER 2017	
2433306	J11	QASHQAI2PCTI	NSW	30517	Suttons Homebush Nissan	Jun 2017					30/09/2017	DTX17B	09/02/2018	MRS ELIANA GUERRERO			R	 34,077.27					      187.01	CVP DECEMBER 2017	
2433306	J11	QASHQAI2PCTI	NSW	30517	Suttons Homebush Nissan	Jun 2017					30/09/2017	DTX17B	09/02/2018	MRS ELIANA GUERRERO			R	 34,077.27					      204.54	CVP JANUARY 2018	
2433138	J11	QASHQAI2PCTI	NSW	30517	Suttons Homebush Nissan	Jun 2017	07/01/2018	MRS ANI KAZANTCHIAN			17/01/2018	DTE01K		MRS ANI KAZANTCHIAN	Nissan Corporate Employee Premium	5870	E	 34,077.27					    1,200.00	PREMIUM FLEET BONUS	
2433138	J11	QASHQAI2PCTI	NSW	30517	Suttons Homebush Nissan	Jun 2017	07/01/2018	MRS ANI KAZANTCHIAN			17/01/2018	DTE01K		MRS ANI KAZANTCHIAN	Nissan Corporate Employee Premium	5870	E	 34,077.27					    2,250.00	Dealer Fleet Claim authorised 18/01/2018	
2433304	J11	QASHQAI2PCTI	NSW	30517	Suttons Homebush Nissan	Jun 2017	27/08/2017	MRS THI CHI TRAN			31/08/2017	DQC62S		MRS THI CHI TRAN			R	 34,077.27					    2,081.00	J11W ORC	
2433304	J11	QASHQAI2PCTI	NSW	30517	Suttons Homebush Nissan	Jun 2017	27/08/2017	MRS THI CHI TRAN			31/08/2017	DQC62S		MRS THI CHI TRAN			R	 34,077.27					    2,272.72	J11W RETAIL BONUS	
2433305	J11	QASHQAI2PCTI	NSW	30517	Suttons Homebush Nissan	Jun 2017	04/09/2017	MRS BELINDA SWAIN			07/09/2017	DQN76T		MRS BELINDA SWAIN			R	 34,077.27					    2,033.00	J11W ORC	
2433305	J11	QASHQAI2PCTI	NSW	30517	Suttons Homebush Nissan	Jun 2017	04/09/2017	MRS BELINDA SWAIN			07/09/2017	DQN76T		MRS BELINDA SWAIN			R	 34,077.27					    1,363.63	J11W RETAIL BONUS	
2434122	J11	QASHQAI2PCTI	NSW	30517	Suttons Homebush Nissan	Jun 2017	28/01/2018	MRS TAHNEE WOODHOUSE			31/01/2018	CN92YH		MRS TAHNEE WOODHOUSE			R	 34,077.27					    1,934.00	J11W ORC	
2434122	J11	QASHQAI2PCTI	NSW	30517	Suttons Homebush Nissan	Jun 2017	28/01/2018	MRS TAHNEE WOODHOUSE			31/01/2018	CN92YH		MRS TAHNEE WOODHOUSE			R	 34,077.27					    1,363.63	QASHQAI RETAIL BONUS	
2434138	J11	QASHQAI2PCTI	NSW	30517	Suttons Homebush Nissan	Jun 2017					19/09/2017	DQW90A	29/10/2018	SUTTONS HOMEBUSH NISSAN			D	 34,077.27					      152.22	CVP SEPTEMBER	
2434138	J11	QASHQAI2PCTI	NSW	30517	Suttons Homebush Nissan	Jun 2017					19/09/2017	DQW90A	29/10/2018	SUTTONS HOMEBUSH NISSAN			D	 34,077.27					    3,895.18	Z CAR PAYMENT	
2434138	J11	QASHQAI2PCTI	NSW	30517	Suttons Homebush Nissan	Jun 2017					19/09/2017	DQW90A	29/10/2018	SUTTONS HOMEBUSH NISSAN			D	 34,077.27					      192.51	CVP SEPTEMBER 2017	
2434138	J11	QASHQAI2PCTI	NSW	30517	Suttons Homebush Nissan	Jun 2017					19/09/2017	DQW90A	29/10/2018	SUTTONS HOMEBUSH NISSAN			D	 34,077.27					      192.51	CVP OCTOBER 2017	
2434138	J11	QASHQAI2PCTI	NSW	30517	Suttons Homebush Nissan	Jun 2017					19/09/2017	DQW90A	29/10/2018	SUTTONS HOMEBUSH NISSAN			D	 34,077.27					      181.81	CVP NOVEMBER 2017	
2434138	J11	QASHQAI2PCTI	NSW	30517	Suttons Homebush Nissan	Jun 2017					19/09/2017	DQW90A	29/10/2018	SUTTONS HOMEBUSH NISSAN			D	 34,077.27					      187.01	CVP DECEMBER 2017	
2434138	J11	QASHQAI2PCTI	NSW	30517	Suttons Homebush Nissan	Jun 2017					19/09/2017	DQW90A	29/10/2018	SUTTONS HOMEBUSH NISSAN			D	 34,077.27					      204.54	CVP JANUARY 2018	
2434138	J11	QASHQAI2PCTI	NSW	30517	Suttons Homebush Nissan	Jun 2017					19/09/2017	DQW90A	29/10/2018	SUTTONS HOMEBUSH NISSAN			D	 34,077.27					      218.18	CVP FEBRUARY 2018	
2391239	J11	QASHQAI2PCTI	NSW	30517	Suttons Homebush Nissan	Nov 2016					31/03/2017	TBA	31/08/2017	MR PETER BERBERIAN			R	 33,627.27					    1,940.00	J11W ORC	
2391239	J11	QASHQAI2PCTI	NSW	30517	Suttons Homebush Nissan	Nov 2016					31/03/2017	TBA	31/08/2017	MR PETER BERBERIAN			R	 33,627.27					    2,272.72	J11W RETAIL BONUS	
2391239	J11	QASHQAI2PCTI	NSW	30517	Suttons Homebush Nissan	Nov 2016					31/03/2017	TBA	31/08/2017	MR PETER BERBERIAN			R	 33,627.27					      454.54	J11W AGED STOCK BONUS	
2391162	J11	QASHQAI2PCTI	NSW	30517	Suttons Homebush Nissan	Nov 2016					31/03/2017	DNH77H	14/07/2017	MR CAMERON HATHAWAY			R	 34,077.27					    2,048.00	J11W ORC	
2391162	J11	QASHQAI2PCTI	NSW	30517	Suttons Homebush Nissan	Nov 2016					31/03/2017	DNH77H	14/07/2017	MR CAMERON HATHAWAY			R	 34,077.27					    2,272.72	J11W RETAIL BONUS	
2391162	J11	QASHQAI2PCTI	NSW	30517	Suttons Homebush Nissan	Nov 2016					31/03/2017	DNH77H	14/07/2017	MR CAMERON HATHAWAY			R	 34,077.27					      454.54	J11W AGED STOCK BONUS	
2391182	J11	QASHQAI2PCTI	NSW	30517	Suttons Homebush Nissan	Nov 2016	19/07/2017	MR JEFFREY ROSS MCKENDRY			31/07/2017	DPS92X		MR JEFFREY ROSS MCKENDRY			R	 34,077.27					    1,979.00	J11W ORC	
2391182	J11	QASHQAI2PCTI	NSW	30517	Suttons Homebush Nissan	Nov 2016	19/07/2017	MR JEFFREY ROSS MCKENDRY			31/07/2017	DPS92X		MR JEFFREY ROSS MCKENDRY			R	 34,077.27					    2,272.72	J11W RETAIL BONUS	
2391182	J11	QASHQAI2PCTI	NSW	30517	Suttons Homebush Nissan	Nov 2016	19/07/2017	MR JEFFREY ROSS MCKENDRY			31/07/2017	DPS92X		MR JEFFREY ROSS MCKENDRY			R	 34,077.27					      454.54	J11W AGED STOCK BONUS	
2391188	J11	QASHQAI2PCTI	NSW	30517	Suttons Homebush Nissan	Nov 2016	30/07/2017	MRS SALMA SUKKAR			31/07/2017	DPS93M		MRS SALMA SUKKAR			R	 34,077.27					    1,994.00	J11W ORC	
2391188	J11	QASHQAI2PCTI	NSW	30517	Suttons Homebush Nissan	Nov 2016	30/07/2017	MRS SALMA SUKKAR			31/07/2017	DPS93M		MRS SALMA SUKKAR			R	 34,077.27					      454.54	J11W AGED STOCK BONUS	
2391188	J11	QASHQAI2PCTI	NSW	30517	Suttons Homebush Nissan	Nov 2016	30/07/2017	MRS SALMA SUKKAR			31/07/2017	DPS93M		MRS SALMA SUKKAR			R	 34,077.27					    2,272.72	J11W RETAIL BONUS	
2390006	J11	QASHQAI2PCTI	NSW	30517	Suttons Homebush Nissan	Nov 2016	20/08/2017	MISS TIEU THO PHAM			22/08/2017	DQC61W		MISS TIEU THO PHAM			R	 34,077.27					    1,955.00	J11W ORC	
2390006	J11	QASHQAI2PCTI	NSW	30517	Suttons Homebush Nissan	Nov 2016	20/08/2017	MISS TIEU THO PHAM			22/08/2017	DQC61W		MISS TIEU THO PHAM			R	 34,077.27					    2,272.72	J11W RETAIL BONUS	
2390006	J11	QASHQAI2PCTI	NSW	30517	Suttons Homebush Nissan	Nov 2016	20/08/2017	MISS TIEU THO PHAM			22/08/2017	DQC61W		MISS TIEU THO PHAM			R	 34,077.27					      454.54	J11W AGED STOCK BONUS	
2391626	J11	QASHQAI2PCTI	NSW	30517	Suttons Homebush Nissan	Nov 2016					31/03/2017	DNF02X	29/08/2017	MR BERNARD SZE KIN MA			R	 33,627.27					    2,155.00	J11W ORC	
2391626	J11	QASHQAI2PCTI	NSW	30517	Suttons Homebush Nissan	Nov 2016					31/03/2017	DNF02X	29/08/2017	MR BERNARD SZE KIN MA			R	 33,627.27					    2,272.72	J11W RETAIL BONUS	
2391626	J11	QASHQAI2PCTI	NSW	30517	Suttons Homebush Nissan	Nov 2016					31/03/2017	DNF02X	29/08/2017	MR BERNARD SZE KIN MA			R	 33,627.27					      454.54	J11W AGED STOCK BONUS	
2391627	J11	QASHQAI2PCTI	NSW	30517	Suttons Homebush Nissan	Nov 2016					31/03/2017	DQN76Z	13/09/2017	MS MALINA TALEVSKI			R	 33,627.27					    1,985.00	J11W ORC	
2391627	J11	QASHQAI2PCTI	NSW	30517	Suttons Homebush Nissan	Nov 2016					31/03/2017	DQN76Z	13/09/2017	MS MALINA TALEVSKI			R	 33,627.27					    1,363.63	J11W RETAIL BONUS	
2391627	J11	QASHQAI2PCTI	NSW	30517	Suttons Homebush Nissan	Nov 2016					31/03/2017	DQN76Z	13/09/2017	MS MALINA TALEVSKI			R	 33,627.27					      454.54	J11W AGED STOCK BONUS	
2391628	J11	QASHQAI2PCTI	NSW	30517	Suttons Homebush Nissan	Nov 2016					31/03/2017	DQC61S	21/08/2017	NU SCIENTIFIC PTY LTD			R	 33,627.27					    2,215.00	J11W ORC	
2391628	J11	QASHQAI2PCTI	NSW	30517	Suttons Homebush Nissan	Nov 2016					31/03/2017	DQC61S	21/08/2017	NU SCIENTIFIC PTY LTD			R	 33,627.27					    2,272.72	J11W RETAIL BONUS	
2391628	J11	QASHQAI2PCTI	NSW	30517	Suttons Homebush Nissan	Nov 2016					31/03/2017	DQC61S	21/08/2017	NU SCIENTIFIC PTY LTD			R	 33,627.27					      454.54	J11W AGED STOCK BONUS	
2391629	J11	QASHQAI2PCTI	NSW	30517	Suttons Homebush Nissan	Nov 2016					31/03/2017	DQN76R	12/09/2017	MS JANINE BRACKA			R	 33,627.27					    1,967.00	J11W ORC	
2391629	J11	QASHQAI2PCTI	NSW	30517	Suttons Homebush Nissan	Nov 2016					31/03/2017	DQN76R	12/09/2017	MS JANINE BRACKA			R	 33,627.27					      454.54	J11W AGED STOCK BONUS	
2391629	J11	QASHQAI2PCTI	NSW	30517	Suttons Homebush Nissan	Nov 2016					31/03/2017	DQN76R	12/09/2017	MS JANINE BRACKA			R	 33,627.27					    1,363.63	J11W RETAIL BONUS	
2391631	J11	QASHQAI2PCTI	NSW	30517	Suttons Homebush Nissan	Nov 2016					31/03/2017	DQN77E	18/09/2017	DR JAN MARIAN BRECKENRIDGE			R	 33,627.27					    1,910.00	J11W ORC	
2391631	J11	QASHQAI2PCTI	NSW	30517	Suttons Homebush Nissan	Nov 2016					31/03/2017	DQN77E	18/09/2017	DR JAN MARIAN BRECKENRIDGE			R	 33,627.27					    1,363.63	J11W RETAIL BONUS	
2391631	J11	QASHQAI2PCTI	NSW	30517	Suttons Homebush Nissan	Nov 2016					31/03/2017	DQN77E	18/09/2017	DR JAN MARIAN BRECKENRIDGE			R	 33,627.27					      454.54	J11W AGED STOCK BONUS	
2391632	J11	QASHQAI2PCTI	NSW	30517	Suttons Homebush Nissan	Nov 2016					31/03/2017	DQN76H	12/09/2017	MRS NARIMAN DEHAIBY			R	 33,627.27					    2,033.00	J11W ORC	
2391632	J11	QASHQAI2PCTI	NSW	30517	Suttons Homebush Nissan	Nov 2016					31/03/2017	DQN76H	12/09/2017	MRS NARIMAN DEHAIBY			R	 33,627.27					    1,363.63	J11W RETAIL BONUS	
2391632	J11	QASHQAI2PCTI	NSW	30517	Suttons Homebush Nissan	Nov 2016					31/03/2017	DQN76H	12/09/2017	MRS NARIMAN DEHAIBY			R	 33,627.27					      454.54	J11W AGED STOCK BONUS	
2395733	J11	QASHQAI2PCTI	NSW	30517	Suttons Homebush Nissan	Dec 2016	05/09/2017	MS DANIKA CODDINGTON			12/09/2017	DQN76U		MS DANIKA CODDINGTON			R	 34,077.27					    1,805.00	J11W ORC	
2395733	J11	QASHQAI2PCTI	NSW	30517	Suttons Homebush Nissan	Dec 2016	05/09/2017	MS DANIKA CODDINGTON			12/09/2017	DQN76U		MS DANIKA CODDINGTON			R	 34,077.27					    1,363.63	J11W RETAIL BONUS	
2395733	J11	QASHQAI2PCTI	NSW	30517	Suttons Homebush Nissan	Dec 2016	05/09/2017	MS DANIKA CODDINGTON			12/09/2017	DQN76U		MS DANIKA CODDINGTON			R	 34,077.27					      454.54	J11W AGED STOCK BONUS	
2395390	J11	QASHQAI2PCTI	NSW	30517	Suttons Homebush Nissan	Dec 2016					31/03/2017	DQC61P	21/08/2017	MR GEOFFREY HUGHES			R	 33,627.27					    1,979.00	J11W ORC	
2395390	J11	QASHQAI2PCTI	NSW	30517	Suttons Homebush Nissan	Dec 2016					31/03/2017	DQC61P	21/08/2017	MR GEOFFREY HUGHES			R	 33,627.27					    2,272.72	J11W RETAIL BONUS	
2395390	J11	QASHQAI2PCTI	NSW	30517	Suttons Homebush Nissan	Dec 2016					31/03/2017	DQC61P	21/08/2017	MR GEOFFREY HUGHES			R	 33,627.27					      454.54	J11W AGED STOCK BONUS	
2395389	J11	QASHQAI2PCTI	NSW	30517	Suttons Homebush Nissan	Dec 2016					31/03/2017	DNH77C	10/07/2017	MS MAJDA IBRAHIM			R	 34,077.27					    2,057.00	J11W ORC	
2395389	J11	QASHQAI2PCTI	NSW	30517	Suttons Homebush Nissan	Dec 2016					31/03/2017	DNH77C	10/07/2017	MS MAJDA IBRAHIM			R	 34,077.27					      454.54	J11W AGED STOCK BONUS	
2396629	J11	QASHQAI2PCTI	NSW	30517	Suttons Homebush Nissan	Dec 2016					31/03/2017	DNE43A	07/08/2017	MISS FELICIA KASHA ROBINSON			R	 34,077.27					    1,784.00	J11W ORC	
2396629	J11	QASHQAI2PCTI	NSW	30517	Suttons Homebush Nissan	Dec 2016					31/03/2017	DNE43A	07/08/2017	MISS FELICIA KASHA ROBINSON			R	 34,077.27					    2,272.72	J11W RETAIL BONUS	
2396629	J11	QASHQAI2PCTI	NSW	30517	Suttons Homebush Nissan	Dec 2016					31/03/2017	DNE43A	07/08/2017	MISS FELICIA KASHA ROBINSON			R	 34,077.27					      454.54	J11W AGED STOCK BONUS	
2396647	J11	QASHQAI2PCTI	NSW	30517	Suttons Homebush Nissan	Dec 2016					31/03/2017	DQN76T	14/09/2017	O'KEEFE CONSULTANCY SERVICES			R	 34,077.27					    2,182.00	J11W ORC	
2396647	J11	QASHQAI2PCTI	NSW	30517	Suttons Homebush Nissan	Dec 2016					31/03/2017	DQN76T	14/09/2017	O'KEEFE CONSULTANCY SERVICES			R	 34,077.27					    1,363.63	J11W RETAIL BONUS	
2396647	J11	QASHQAI2PCTI	NSW	30517	Suttons Homebush Nissan	Dec 2016					31/03/2017	DQN76T	14/09/2017	O'KEEFE CONSULTANCY SERVICES			R	 34,077.27					      454.54	J11W AGED STOCK BONUS	
2396696	J11	QASHQAI2PCTI	NSW	30517	Suttons Homebush Nissan	Dec 2016					21/07/2017	DPS92H	30/06/2018	SUTTONS HOMEBUSH NISSAN			X	 34,077.27					    1,363.63	THIS IS FOR SUO 2396696	
2396696	J11	QASHQAI2PCTI	NSW	30517	Suttons Homebush Nissan	Dec 2016					21/07/2017	DPS92H	30/06/2018	SUTTONS HOMEBUSH NISSAN			X	 34,077.27					    1,279.00	THIS IS ON ROADS FOR SUO 2396696 SALES T	
2396696	J11	QASHQAI2PCTI	NSW	30517	Suttons Homebush Nissan	Dec 2016					21/07/2017	DPS92H	30/06/2018	SUTTONS HOMEBUSH NISSAN			X	 34,077.27					      211.25	CVP JULY 2017	
2396696	J11	QASHQAI2PCTI	NSW	30517	Suttons Homebush Nissan	Dec 2016					21/07/2017	DPS92H	30/06/2018	SUTTONS HOMEBUSH NISSAN			X	 34,077.27					      233.93	CVP AUGUST 2017	
2396696	J11	QASHQAI2PCTI	NSW	30517	Suttons Homebush Nissan	Dec 2016					21/07/2017	DPS92H	30/06/2018	SUTTONS HOMEBUSH NISSAN			X	 34,077.27					      192.51	CVP SEPTEMBER 2017	
2396696	J11	QASHQAI2PCTI	NSW	30517	Suttons Homebush Nissan	Dec 2016					21/07/2017	DPS92H	30/06/2018	SUTTONS HOMEBUSH NISSAN			X	 34,077.27					      192.51	CVP OCTOBER 2017	
2396696	J11	QASHQAI2PCTI	NSW	30517	Suttons Homebush Nissan	Dec 2016					21/07/2017	DPS92H	30/06/2018	SUTTONS HOMEBUSH NISSAN			X	 34,077.27					      181.81	CVP NOVEMBER 2017	
2396696	J11	QASHQAI2PCTI	NSW	30517	Suttons Homebush Nissan	Dec 2016					21/07/2017	DPS92H	30/06/2018	SUTTONS HOMEBUSH NISSAN			X	 34,077.27					      187.01	CVP DECEMBER 2017	
2406080	J11	QASHQAI2PCTI	NSW	30517	Suttons Homebush Nissan	Feb 2017	27/08/2017	MR JOHN GIESE			31/08/2017	DQC62V		MR JOHN GIESE			R	 34,077.27					    1,997.00	J11W ORC	
2406080	J11	QASHQAI2PCTI	NSW	30517	Suttons Homebush Nissan	Feb 2017	27/08/2017	MR JOHN GIESE			31/08/2017	DQC62V		MR JOHN GIESE			R	 34,077.27					    2,272.72	J11W RETAIL BONUS	
2406077	J11	QASHQAI2PCTI	NSW	30517	Suttons Homebush Nissan	Feb 2017	03/07/2017	MR HYUNJUNG JANG			14/07/2017	220XKK		MR HYUNJUNG JANG			R	 33,627.27					    1,750.85	J11W ORC	
2406077	J11	QASHQAI2PCTI	NSW	30517	Suttons Homebush Nissan	Feb 2017	03/07/2017	MR HYUNJUNG JANG			14/07/2017	220XKK		MR HYUNJUNG JANG			R	 33,627.27					    2,272.72	J11W RETAIL BONUS	
2406078	J11	QASHQAI2PCTI	NSW	30517	Suttons Homebush Nissan	Feb 2017	19/07/2017	MS RHONDA L TYHYME			31/07/2017	DSS35K	29/12/2017	MS RHONDA L TYHYME			R	 33,627.27					    1,917.00	J11W ORC	
2406078	J11	QASHQAI2PCTI	NSW	30517	Suttons Homebush Nissan	Feb 2017	19/07/2017	MS RHONDA L TYHYME			31/07/2017	DSS35K	29/12/2017	MS RHONDA L TYHYME			R	 33,627.27					    1,363.63	QASHQAI RETAIL BONUS	
2406078	J11	QASHQAI2PCTI	NSW	30517	Suttons Homebush Nissan	Feb 2017	19/07/2017	MS RHONDA L TYHYME			31/07/2017	DSS35K	29/12/2017	MS RHONDA L TYHYME			R	 33,627.27					      681.81	BOXING DAY SALE	
2406078	J11	QASHQAI2PCTI	NSW	30517	Suttons Homebush Nissan	Feb 2017	19/07/2017	MS RHONDA L TYHYME			31/07/2017	DSS35K	29/12/2017	MS RHONDA L TYHYME			R	 33,627.27					      233.76	CVP AUGUST 2017	
2406078	J11	QASHQAI2PCTI	NSW	30517	Suttons Homebush Nissan	Feb 2017	19/07/2017	MS RHONDA L TYHYME			31/07/2017	DSS35K	29/12/2017	MS RHONDA L TYHYME			R	 33,627.27					      192.51	CVP SEPTEMBER 2017	
2406078	J11	QASHQAI2PCTI	NSW	30517	Suttons Homebush Nissan	Feb 2017	19/07/2017	MS RHONDA L TYHYME			31/07/2017	DSS35K	29/12/2017	MS RHONDA L TYHYME			R	 33,627.27					      192.51	CVP OCTOBER 2017	
2406078	J11	QASHQAI2PCTI	NSW	30517	Suttons Homebush Nissan	Feb 2017	19/07/2017	MS RHONDA L TYHYME			31/07/2017	DSS35K	29/12/2017	MS RHONDA L TYHYME			R	 33,627.27					      181.81	CVP NOVEMBER 2017	
2406081	J11	QASHQAI2PCTI	NSW	30517	Suttons Homebush Nissan	Feb 2017					28/08/2017	MRE14U	12/06/2018	SUTTONS HOMEBUSH NISSAN			X	 34,077.27					    2,115.00	J11W ORC	
2406081	J11	QASHQAI2PCTI	NSW	30517	Suttons Homebush Nissan	Feb 2017					28/08/2017	MRE14U	12/06/2018	SUTTONS HOMEBUSH NISSAN			X	 34,077.27					    1,363.63	QASHQAI RETAIL BONUS	
2406081	J11	QASHQAI2PCTI	NSW	30517	Suttons Homebush Nissan	Feb 2017					28/08/2017	MRE14U	12/06/2018	SUTTONS HOMEBUSH NISSAN			X	 34,077.27					      233.76	CVP AUGUST 2017	
2406081	J11	QASHQAI2PCTI	NSW	30517	Suttons Homebush Nissan	Feb 2017					28/08/2017	MRE14U	12/06/2018	SUTTONS HOMEBUSH NISSAN			X	 34,077.27					      192.51	CVP SEPTEMBER 2017	
2406081	J11	QASHQAI2PCTI	NSW	30517	Suttons Homebush Nissan	Feb 2017					28/08/2017	MRE14U	12/06/2018	SUTTONS HOMEBUSH NISSAN			X	 34,077.27					      192.51	CVP OCTOBER 2017	
2406081	J11	QASHQAI2PCTI	NSW	30517	Suttons Homebush Nissan	Feb 2017					28/08/2017	MRE14U	12/06/2018	SUTTONS HOMEBUSH NISSAN			X	 34,077.27					      182.10	CVP NOVEMBER 2017	
2406081	J11	QASHQAI2PCTI	NSW	30517	Suttons Homebush Nissan	Feb 2017					28/08/2017	MRE14U	12/06/2018	SUTTONS HOMEBUSH NISSAN			X	 34,077.27					      187.01	CVP DECEMBER 2017	
2406081	J11	QASHQAI2PCTI	NSW	30517	Suttons Homebush Nissan	Feb 2017					28/08/2017	MRE14U	12/06/2018	SUTTONS HOMEBUSH NISSAN			X	 34,077.27					      204.71	CVP JANUARY 2018	
2406084	J11	QASHQAI2PCTI	NSW	30517	Suttons Homebush Nissan	Mar 2017	23/07/2017	MRS LIEZEL SISON			31/07/2017	DPS92V		MRS LIEZEL SISON			R	 33,627.27					    2,012.00	J11W ORC	
2406084	J11	QASHQAI2PCTI	NSW	30517	Suttons Homebush Nissan	Mar 2017	23/07/2017	MRS LIEZEL SISON			31/07/2017	DPS92V		MRS LIEZEL SISON			R	 33,627.27					    2,272.72	J11W RETAIL BONUS	
2422308	J11	QASHQAI2PMST	NSW	30517	Suttons Homebush Nissan	Apr 2017	20/08/2017	MR BRIAN PATRICK STEWART			30/08/2017	DQE62R		MR BRIAN PATRICK STEWART			R	 24,077.27					    1,793.00	J11W ORC	
2396714	J11	QASHQAI2PMST	NSW	30517	Suttons Homebush Nissan	Dec 2016					30/09/2017	DTE01V	29/01/2018	MRS AMANDA FULLERTON			R	 24,077.27					    1,614.00	J11W ORC	
2396714	J11	QASHQAI2PMST	NSW	30517	Suttons Homebush Nissan	Dec 2016					30/09/2017	DTE01V	29/01/2018	MRS AMANDA FULLERTON			R	 24,077.27					      454.54	J11W AGED STOCK BONUS	
2396714	J11	QASHQAI2PMST	NSW	30517	Suttons Homebush Nissan	Dec 2016					30/09/2017	DTE01V	29/01/2018	MRS AMANDA FULLERTON			R	 24,077.27					    1,818.18	QASHQAI RETAIL BONUS	
2396714	J11	QASHQAI2PMST	NSW	30517	Suttons Homebush Nissan	Dec 2016					30/09/2017	DTE01V	29/01/2018	MRS AMANDA FULLERTON			R	 24,077.27					      192.51	CVP SEPTEMBER 2017	
2396714	J11	QASHQAI2PMST	NSW	30517	Suttons Homebush Nissan	Dec 2016					30/09/2017	DTE01V	29/01/2018	MRS AMANDA FULLERTON			R	 24,077.27					      192.51	CVP OCTOBER 2017	
2396714	J11	QASHQAI2PMST	NSW	30517	Suttons Homebush Nissan	Dec 2016					30/09/2017	DTE01V	29/01/2018	MRS AMANDA FULLERTON			R	 24,077.27					      181.81	CVP NOVEMBER 2017	
2396714	J11	QASHQAI2PMST	NSW	30517	Suttons Homebush Nissan	Dec 2016					30/09/2017	DTE01V	29/01/2018	MRS AMANDA FULLERTON			R	 24,077.27					      187.01	CVP DECEMBER 2017	
2434164	J11	QASHQAI2PMTI	NSW	30517	Suttons Homebush Nissan	Jun 2017	13/10/2017	MR ARTHUR STANLEY			23/10/2017	DQW91T		MR ARTHUR STANLEY			R	 31,354.55					    1,973.00	J11W ORC	
2434164	J11	QASHQAI2PMTI	NSW	30517	Suttons Homebush Nissan	Jun 2017	13/10/2017	MR ARTHUR STANLEY			23/10/2017	DQW91T		MR ARTHUR STANLEY			R	 31,354.55					      909.09	QASHQAI RETAIL BONUS	
2374944	J11	QASHQAI2PMTI	NSW	30517	Suttons Homebush Nissan	Aug 2016	07/08/2017	MRS NICOLE DEVINE			21/08/2017	DQC61U		MRS NICOLE DEVINE			R	 31,354.55					    1,808.00	J11W ORC	
2374944	J11	QASHQAI2PMTI	NSW	30517	Suttons Homebush Nissan	Aug 2016	07/08/2017	MRS NICOLE DEVINE			21/08/2017	DQC61U		MRS NICOLE DEVINE			R	 31,354.55					      454.54	J11W AGED STOCK BONUS	
2407267	J11	QASHQAI2PMTI	NSW	30517	Suttons Homebush Nissan	Feb 2017	08/08/2017	RME FAZZALARO PTY LTD			21/08/2017	MEL15P		RME FAZZALARO PTY LTD			R	 31,354.55					    2,131.00	J11W ORC	
2377011	L33	ALTIMAA35STIS	NSW	30517	Suttons Homebush Nissan	Aug 2016					31/12/2016	DPS92E	26/07/2017	MRS IRENEUSZ KAMINSKI			R	 41,804.55					    6,363.63	L33S RETAIL  BONUS	
2377011	L33	ALTIMAA35STIS	NSW	30517	Suttons Homebush Nissan	Aug 2016					31/12/2016	DPS92E	26/07/2017	MRS IRENEUSZ KAMINSKI			R	 41,804.55					    3,636.36	DEMOBONUS	
2420582	R52	PFINDER2HAST2	NSW	30517	Suttons Homebush Nissan	Apr 2017	30/06/2017	GARRETT FIVE PTY LTD			20/07/2017	DNH77W		GARRETT FIVE PTY LTD			R	 40,895.45							
2408018	R52	PFINDER2VASTL2	NSW	30517	Suttons Homebush Nissan	Feb 2017	30/09/2017	MS THI PHUONG THAO TRAN			30/09/2017	DSR14B		MS THI PHUONG THAO TRAN			R	 49,259.09					      379.00	PATHFINDER SERIES 2 ORC CONTRIBUTION	
2408042	R52	PFINDER2VASTL2	NSW	30517	Suttons Homebush Nissan	Feb 2017	19/11/2017	FULLY MOON PTY LTD	P-201711200		27/11/2017	DSG19N		FULLY MOON PTY LTD			R	 48,809.09					      379.00	PATHFINDER SERIES 2 ORC CONTRIBUTION	
2408042	R52	PFINDER2VASTL2	NSW	30517	Suttons Homebush Nissan	Feb 2017	19/11/2017	FULLY MOON PTY LTD	P-201711200		27/11/2017	DSG19N		FULLY MOON PTY LTD			R	 48,809.09					    1,363.64	OCT 17 AGED LAM INCENTIVE	
2408042	R52	PFINDER2VASTL2	NSW	30517	Suttons Homebush Nissan	Feb 2017	19/11/2017	FULLY MOON PTY LTD	P-201711200		27/11/2017	DSG19N		FULLY MOON PTY LTD			R	 48,809.09							
2408042	R52	PFINDER2VASTL2	NSW	30517	Suttons Homebush Nissan	Feb 2017	19/11/2017	FULLY MOON PTY LTD	P-201711200		27/11/2017	DSG19N		FULLY MOON PTY LTD			R	 48,809.09					      454.55	NOV 17 CLOSING BONUS	
2397231	R52	PFINDER2VASTL2	NSW	30517	Suttons Homebush Nissan	Dec 2016					31/08/2017	DSG19P	27/11/2017	MRS ALISON MARGARET BLACK			R	 48,809.09					      909.09	R52 S2 - AGED STOCK BONUS	
2397231	R52	PFINDER2VASTL2	NSW	30517	Suttons Homebush Nissan	Dec 2016					31/08/2017	DSG19P	27/11/2017	MRS ALISON MARGARET BLACK			R	 48,809.09					      379.00	PATHFINDER SERIES 2 ORC CONTRIBUTION	
2397231	R52	PFINDER2VASTL2	NSW	30517	Suttons Homebush Nissan	Dec 2016					31/08/2017	DSG19P	27/11/2017	MRS ALISON MARGARET BLACK			R	 48,809.09							
2397231	R52	PFINDER2VASTL2	NSW	30517	Suttons Homebush Nissan	Dec 2016					31/08/2017	DSG19P	27/11/2017	MRS ALISON MARGARET BLACK			R	 48,809.09					      233.76	CVP AUGUST 2017	
2397231	R52	PFINDER2VASTL2	NSW	30517	Suttons Homebush Nissan	Dec 2016					31/08/2017	DSG19P	27/11/2017	MRS ALISON MARGARET BLACK			R	 48,809.09					      192.51	CVP SEPTEMBER 2017	
2397231	R52	PFINDER2VASTL2	NSW	30517	Suttons Homebush Nissan	Dec 2016					31/08/2017	DSG19P	27/11/2017	MRS ALISON MARGARET BLACK			R	 48,809.09					      192.51	CVP OCTOBER 2017	
2408007	R52	PFINDER2VASTL2	NSW	30517	Suttons Homebush Nissan	Feb 2017	26/10/2017	MR GEORGE SAMUEL	P-201710260		31/10/2017	TBA666		MR GEORGE SAMUEL			R	 49,259.09					      379.00	PATHFINDER SERIES 2 ORC CONTRIBUTION	
2408007	R52	PFINDER2VASTL2	NSW	30517	Suttons Homebush Nissan	Feb 2017	26/10/2017	MR GEORGE SAMUEL	P-201710260		31/10/2017	TBA666		MR GEORGE SAMUEL			R	 49,259.09							
2408001	R52	PFINDER2VASTL2	NSW	30517	Suttons Homebush Nissan	Feb 2017	29/11/2017	BEAMING STAR PTY LTD			30/11/2017	DTG45E		BEAMING STAR PTY LTD			R	 49,259.09					      379.00	PATHFINDER SERIES 2 ORC CONTRIBUTION	
2408001	R52	PFINDER2VASTL2	NSW	30517	Suttons Homebush Nissan	Feb 2017	29/11/2017	BEAMING STAR PTY LTD			30/11/2017	DTG45E		BEAMING STAR PTY LTD			R	 49,259.09					    1,363.64	OCT 17 AGED LAM INCENTIVE	
2408001	R52	PFINDER2VASTL2	NSW	30517	Suttons Homebush Nissan	Feb 2017	29/11/2017	BEAMING STAR PTY LTD			30/11/2017	DTG45E		BEAMING STAR PTY LTD			R	 49,259.09					      454.55	NOV 17 CLOSING BONUS	
2438126	R52	PFINDER2VASTL2	NSW	30517	Suttons Homebush Nissan	Jul 2017	29/08/2017	INFOLABS CONSULTING PTY LTD			31/08/2017	TBA		INFOLABS CONSULTING PTY LTD			R	 49,259.09							
2419762	R52	PFINDER2VASTL2	NSW	30517	Suttons Homebush Nissan	Apr 2017	31/01/2018	A GRAYDE PLUMBING PTY LTD			31/01/2018	DTG45T		A GRAYDE PLUMBING PTY LTD			R	 49,259.09					      379.00	PATHFINDER SERIES 2 ORC CONTRIBUTION	
2419762	R52	PFINDER2VASTL2	NSW	30517	Suttons Homebush Nissan	Apr 2017	31/01/2018	A GRAYDE PLUMBING PTY LTD			31/01/2018	DTG45T		A GRAYDE PLUMBING PTY LTD			R	 49,259.09					    1,818.18	R52 S2 - RETAIL BONUS	
2427046	R52	PFINDER2VASTL2	NSW	30517	Suttons Homebush Nissan	May 2017	19/03/2018	MR JOSEPH ROMEO	P-201803180		22/03/2018	DVK68E		MR JOSEPH ROMEO	Nissan Dealership Employee	105841	E	 49,931.82					      750.00	PREMIUM FLEET BONUS	
2427046	R52	PFINDER2VASTL2	NSW	30517	Suttons Homebush Nissan	May 2017	19/03/2018	MR JOSEPH ROMEO	P-201803180		22/03/2018	DVK68E		MR JOSEPH ROMEO	Nissan Dealership Employee	105841	E	 49,931.82					    2,500.00	Dealer Fleet Claim authorised 23/03/2018	
2419811	R52	PFINDER2VASTL2	NSW	30517	Suttons Homebush Nissan	Apr 2017					31/01/2018	DTG45Y	15/06/2018	SUTTONS HOMEBUSH NISSAN			D	 48,809.09					      681.81	R52 S2 - AGED STOCK BONUS	
2419811	R52	PFINDER2VASTL2	NSW	30517	Suttons Homebush Nissan	Apr 2017					31/01/2018	DTG45Y	15/06/2018	SUTTONS HOMEBUSH NISSAN			D	 48,809.09					    1,637.00	PATHFINDER SERIES 2 ORC CONTRIBUTION	
2419811	R52	PFINDER2VASTL2	NSW	30517	Suttons Homebush Nissan	Apr 2017					31/01/2018	DTG45Y	15/06/2018	SUTTONS HOMEBUSH NISSAN			D	 48,809.09					    1,818.18	R52 2K JUNE	
2419811	R52	PFINDER2VASTL2	NSW	30517	Suttons Homebush Nissan	Apr 2017					31/01/2018	DTG45Y	15/06/2018	SUTTONS HOMEBUSH NISSAN			D	 48,809.09					      204.54	CVP JANUARY 2018	
2419811	R52	PFINDER2VASTL2	NSW	30517	Suttons Homebush Nissan	Apr 2017					31/01/2018	DTG45Y	15/06/2018	SUTTONS HOMEBUSH NISSAN			D	 48,809.09					      218.18	CVP FEBRUARY 2018	
2419811	R52	PFINDER2VASTL2	NSW	30517	Suttons Homebush Nissan	Apr 2017					31/01/2018	DTG45Y	15/06/2018	SUTTONS HOMEBUSH NISSAN			D	 48,809.09					      251.74	CVP MARCH 2018	
2419811	R52	PFINDER2VASTL2	NSW	30517	Suttons Homebush Nissan	Apr 2017					31/01/2018	DTG45Y	15/06/2018	SUTTONS HOMEBUSH NISSAN			D	 48,809.09					      225.70	CVP APRIL 2018	
2419811	R52	PFINDER2VASTL2	NSW	30517	Suttons Homebush Nissan	Apr 2017					31/01/2018	DTG45Y	15/06/2018	SUTTONS HOMEBUSH NISSAN			D	 48,809.09					      233.76	CVP MAY 2018	
2417202	R52	PFINDER2VASTL2	NSW	30517	Suttons Homebush Nissan	Mar 2017	20/11/2017	MR SUMAN PRAJAPATI	P-201711203		29/11/2017	DSG19W		MR SUMAN PRAJAPATI			R	 48,809.09					      379.00	PATHFINDER SERIES 2 ORC CONTRIBUTION	
2417202	R52	PFINDER2VASTL2	NSW	30517	Suttons Homebush Nissan	Mar 2017	20/11/2017	MR SUMAN PRAJAPATI	P-201711203		29/11/2017	DSG19W		MR SUMAN PRAJAPATI			R	 48,809.09							
2417202	R52	PFINDER2VASTL2	NSW	30517	Suttons Homebush Nissan	Mar 2017	20/11/2017	MR SUMAN PRAJAPATI	P-201711203		29/11/2017	DSG19W		MR SUMAN PRAJAPATI			R	 48,809.09					      454.55	NOV 17 CLOSING BONUS	
2408170	R52	PFINDER2VAST2	NSW	30517	Suttons Homebush Nissan	Feb 2017	22/10/2017	MR JIE YAO	P-201710211		31/10/2017	DSG18M		MR JIE YAO			R	 38,172.73					      142.00	PATHFINDER SERIES 2 ORC CONTRIBUTION	
2408170	R52	PFINDER2VAST2	NSW	30517	Suttons Homebush Nissan	Feb 2017	22/10/2017	MR JIE YAO	P-201710211		31/10/2017	DSG18M		MR JIE YAO			R	 38,172.73							
2408101	R52	PFINDER2VAST2	NSW	30517	Suttons Homebush Nissan	Feb 2017	27/12/2017	MR TAHA KHABIR			29/12/2017	DSS35N		MR TAHA KHABIR			R	 38,622.73					      142.00	PATHFINDER SERIES 2 ORC CONTRIBUTION	
2408101	R52	PFINDER2VAST2	NSW	30517	Suttons Homebush Nissan	Feb 2017	27/12/2017	MR TAHA KHABIR			29/12/2017	DSS35N		MR TAHA KHABIR			R	 38,622.73					    1,818.18	R52 S2 - RETAIL BONUS	
2408101	R52	PFINDER2VAST2	NSW	30517	Suttons Homebush Nissan	Feb 2017	27/12/2017	MR TAHA KHABIR			29/12/2017	DSS35N		MR TAHA KHABIR			R	 38,622.73					      454.54	BOXING DAY SALE	
2408101	R52	PFINDER2VAST2	NSW	30517	Suttons Homebush Nissan	Feb 2017	27/12/2017	MR TAHA KHABIR			29/12/2017	DSS35N		MR TAHA KHABIR			R	 38,622.73					    1,363.64	OCT 17 AGED LAM INCENTIVE	
2419934	R52	PFINDER2VAST2	NSW	30517	Suttons Homebush Nissan	Apr 2017	22/01/2018	COUPLE JOSHUA & JESSICA BRASSINTON			29/01/2018	DTE01S		COUPLE JOSHUA & JESSICA BRASSINTON	Nissan Dealership Employee	105841	E	 38,172.73					      750.00	PREMIUM FLEET BONUS	
2419934	R52	PFINDER2VAST2	NSW	30517	Suttons Homebush Nissan	Apr 2017	22/01/2018	COUPLE JOSHUA & JESSICA BRASSINTON			29/01/2018	DTE01S		COUPLE JOSHUA & JESSICA BRASSINTON	Nissan Dealership Employee	105841	E	 38,172.73					    2,500.00	Dealer Fleet Claim authorised 30/01/2018	
2401012	R52	PFINDER2VAST2	NSW	30517	Suttons Homebush Nissan	Jan 2017					31/07/2017	DWB21P	09/05/2018	SUTTONS HOMEBUSH NISSAN			D	 38,622.73					      681.81	R52 S2 - AGED STOCK BONUS	
2401012	R52	PFINDER2VAST2	NSW	30517	Suttons Homebush Nissan	Jan 2017					31/07/2017	DWB21P	09/05/2018	SUTTONS HOMEBUSH NISSAN			D	 38,622.73					    1,656.00	PATHFINDER SERIES 2 ORC CONTRIBUTION	
2401012	R52	PFINDER2VAST2	NSW	30517	Suttons Homebush Nissan	Jan 2017					31/07/2017	DWB21P	09/05/2018	SUTTONS HOMEBUSH NISSAN			D	 38,622.73					      545.45	NISSAN LOYALTY PROGRAM	
2401012	R52	PFINDER2VAST2	NSW	30517	Suttons Homebush Nissan	Jan 2017					31/07/2017	DWB21P	09/05/2018	SUTTONS HOMEBUSH NISSAN			D	 38,622.73					    1,818.18	R52 ADDITIONAL BONUS	
2401012	R52	PFINDER2VAST2	NSW	30517	Suttons Homebush Nissan	Jan 2017					31/07/2017	DWB21P	09/05/2018	SUTTONS HOMEBUSH NISSAN			D	 38,622.73					      211.14	CVP JULY 2017	
2401012	R52	PFINDER2VAST2	NSW	30517	Suttons Homebush Nissan	Jan 2017					31/07/2017	DWB21P	09/05/2018	SUTTONS HOMEBUSH NISSAN			D	 38,622.73					      233.76	CVP AUGUST 2017	
2401012	R52	PFINDER2VAST2	NSW	30517	Suttons Homebush Nissan	Jan 2017					31/07/2017	DWB21P	09/05/2018	SUTTONS HOMEBUSH NISSAN			D	 38,622.73					      192.51	CVP SEPTEMBER 2017	
2401012	R52	PFINDER2VAST2	NSW	30517	Suttons Homebush Nissan	Jan 2017					31/07/2017	DWB21P	09/05/2018	SUTTONS HOMEBUSH NISSAN			D	 38,622.73					      192.51	CVP OCTOBER 2017	
2401012	R52	PFINDER2VAST2	NSW	30517	Suttons Homebush Nissan	Jan 2017					31/07/2017	DWB21P	09/05/2018	SUTTONS HOMEBUSH NISSAN			D	 38,622.73					      181.81	CVP NOVEMBER 2017	
2401012	R52	PFINDER2VAST2	NSW	30517	Suttons Homebush Nissan	Jan 2017					31/07/2017	DWB21P	09/05/2018	SUTTONS HOMEBUSH NISSAN			D	 38,622.73					      187.01	CVP DECEMBER 2017	
2408233	R52	PFINDER4HASTL2	NSW	30517	Suttons Homebush Nissan	Feb 2017	10/07/2017	MR DANIEL KIM			24/07/2017	DPS92B		MR DANIEL KIM			R	 55,622.73							
2414398	R52	PFINDER4HATI2	NSW	30517	Suttons Homebush Nissan	Mar 2017	31/01/2018	MR JOHN PRITCHARD			27/02/2018	DTX17V		MR JOHN PRITCHARD			R	 63,350.00					      909.09	R52 S2 - AGED STOCK BONUS	
2414398	R52	PFINDER4HATI2	NSW	30517	Suttons Homebush Nissan	Mar 2017	31/01/2018	MR JOHN PRITCHARD			27/02/2018	DTX17V		MR JOHN PRITCHARD			R	 63,350.00					    1,818.18	R52 S2 - RETAIL BONUS	
2427206	R52	PFINDER4VASTL2	NSW	30517	Suttons Homebush Nissan	May 2017	29/05/2017	CUSTOM SERVICE LEASING PTY LTD			22/08/2017	CM63JL		CUSTOM SERVICE LEASING PTY LTD	CUSTOM SERVICE LEASING PTY LTD	116895	N	 52,895.45					    2,050.00	Dealer Fleet Claim authorised 23/08/2017	
2434701	R52	PFINDER4VASTL2	NSW	30517	Suttons Homebush Nissan	Jun 2017	16/02/2018	ENDEAVOUR FLEETMANAGEMENT PTY			13/03/2018	DTX16Q		ENDEAVOUR FLEETMANAGEMENT PTY	Endeavour FleetManagement Pty Ltd	145317	U	 53,068.18					    2,150.00	PARTNER FLEET BONUS	
2434701	R52	PFINDER4VASTL2	NSW	30517	Suttons Homebush Nissan	Jun 2017	16/02/2018	ENDEAVOUR FLEETMANAGEMENT PTY			13/03/2018	DTX16Q		ENDEAVOUR FLEETMANAGEMENT PTY	Endeavour FleetManagement Pty Ltd	145317	U	 53,068.18					    1,350.00	Dealer Fleet Claim authorised 14/03/2018	
2420077	R52	PFINDER4VAST2	NSW	30517	Suttons Homebush Nissan	Apr 2017	20/07/2017	MS ROBYN REES			31/07/2017	DPS93K		MS ROBYN REES			R	 41,354.55							
2434718	R52	PFINDER4VAST2	NSW	30517	Suttons Homebush Nissan	Jun 2017	07/03/2018	MR JONATHON FARRELL			22/03/2018	CO00LH		MR JONATHON FARRELL	SG Fleet	104699	I	 41,854.55					    2,150.00	PARTNER FLEET BONUS	
2434718	R52	PFINDER4VAST2	NSW	30517	Suttons Homebush Nissan	Jun 2017	07/03/2018	MR JONATHON FARRELL			22/03/2018	CO00LH		MR JONATHON FARRELL	SG Fleet	104699	I	 41,854.55					    1,350.00	Dealer Fleet Claim authorised 23/03/2018	
2451814	R52	PFINDER4VAST2	NSW	30517	Suttons Homebush Nissan	Sep 2017	11/12/2017	MR YI PAN			27/12/2017	DSS35G		MR YI PAN			R	 41,804.55					    1,818.18	R52 S2 - RETAIL BONUS	
2451814	R52	PFINDER4VAST2	NSW	30517	Suttons Homebush Nissan	Sep 2017	11/12/2017	MR YI PAN			27/12/2017	DSS35G		MR YI PAN			R	 41,804.55					      454.54	BOXING DAY SALE	
2408324	R52	PFINDER4VATI2	NSW	30517	Suttons Homebush Nissan	Feb 2017	03/07/2017	MR SHENG WU			17/07/2017	DNH77P		MR SHENG WU			R	 60,172.73							
2427228	R52	PFINDER4VATI2	NSW	30517	Suttons Homebush Nissan	May 2017					21/12/2017	DSS35D	29/10/2018	SUTTONS HOMEBUSH NISSAN			D	 60,622.73					      152.22	CVP SEPTEMBER	
2427228	R52	PFINDER4VATI2	NSW	30517	Suttons Homebush Nissan	May 2017					21/12/2017	DSS35D	29/10/2018	SUTTONS HOMEBUSH NISSAN			D	 60,622.73					    2,700.00	Z CAR PAYMENT	
2427228	R52	PFINDER4VATI2	NSW	30517	Suttons Homebush Nissan	May 2017					21/12/2017	DSS35D	29/10/2018	SUTTONS HOMEBUSH NISSAN			D	 60,622.73					      187.01	CVP DECEMBER 2017	
2427228	R52	PFINDER4VATI2	NSW	30517	Suttons Homebush Nissan	May 2017					21/12/2017	DSS35D	29/10/2018	SUTTONS HOMEBUSH NISSAN			D	 60,622.73					      204.54	CVP JANUARY 2018	
2427228	R52	PFINDER4VATI2	NSW	30517	Suttons Homebush Nissan	May 2017					21/12/2017	DSS35D	29/10/2018	SUTTONS HOMEBUSH NISSAN			D	 60,622.73					      218.18	CVP FEBRUARY 2018	
2427228	R52	PFINDER4VATI2	NSW	30517	Suttons Homebush Nissan	May 2017					21/12/2017	DSS35D	29/10/2018	SUTTONS HOMEBUSH NISSAN			D	 60,622.73					      251.74	CVP MARCH 2018	
2427228	R52	PFINDER4VATI2	NSW	30517	Suttons Homebush Nissan	May 2017					21/12/2017	DSS35D	29/10/2018	SUTTONS HOMEBUSH NISSAN			D	 60,622.73					      225.70	CVP APRIL 2018	
2427228	R52	PFINDER4VATI2	NSW	30517	Suttons Homebush Nissan	May 2017					21/12/2017	DSS35D	29/10/2018	SUTTONS HOMEBUSH NISSAN			D	 60,622.73					      233.76	CVP MAY 2018	
2401162	R52	PFINDER4VATI2	NSW	30517	Suttons Homebush Nissan	Jan 2017					30/03/2017	DNF02Y	17/11/2017	MR HYUNJOO KIM			R	 60,622.73							
2437574	R52	PFINDER4VATI2	NSW	30517	Suttons Homebush Nissan	Jul 2017	28/04/2017	MR EROTOCLIS NIKOLA			31/08/2017	TBA		MR EROTOCLIS NIKOLA			R	 60,172.73							
2408344	R52	PFINDER4VATI2	NSW	30517	Suttons Homebush Nissan	Feb 2017	14/09/2017	RC VENTURES PTY LTD			21/09/2017	DQN77R		RC VENTURES PTY LTD			R	 60,622.73					      909.09	R52 RETAIL BONUS	
2408344	R52	PFINDER4VATI2	NSW	30517	Suttons Homebush Nissan	Feb 2017	14/09/2017	RC VENTURES PTY LTD			21/09/2017	DQN77R		RC VENTURES PTY LTD			R	 60,622.73					      363.63	SEP 17 FAST START	
2408332	R52	PFINDER4VATI2	NSW	30517	Suttons Homebush Nissan	Feb 2017	24/07/2017	BURWOOD COUNCIL			31/07/2017	DQC61C		BURWOOD COUNCIL	BURWOOD COUNCIL	142577	L	 60,622.73							
2410674	T32	 XTRAIL2PASTL2	NSW	30517	Suttons Homebush Nissan	Feb 2017	15/08/2017	MR YONGCHOL YOU			28/08/2017	DQC62J		MR YONGCHOL YOU			R	 33,713.64							
2410700	T32	 XTRAIL2PASTL2	NSW	30517	Suttons Homebush Nissan	Feb 2017					31/05/2017	DNE40Z	24/11/2017	MR ANDREW BALLAS			R	 33,713.64					      134.00	T32W ORC CONTRIBUTION SERIES 2	
2410700	T32	 XTRAIL2PASTL2	NSW	30517	Suttons Homebush Nissan	Feb 2017					31/05/2017	DNE40Z	24/11/2017	MR ANDREW BALLAS			R	 33,713.64							
2410700	T32	 XTRAIL2PASTL2	NSW	30517	Suttons Homebush Nissan	Feb 2017					31/05/2017	DNE40Z	24/11/2017	MR ANDREW BALLAS			R	 33,713.64					      133.58	CVP MAY 2017	
2410700	T32	 XTRAIL2PASTL2	NSW	30517	Suttons Homebush Nissan	Feb 2017					31/05/2017	DNE40Z	24/11/2017	MR ANDREW BALLAS			R	 33,713.64					      211.14	CVP JULY 2017	
2410700	T32	 XTRAIL2PASTL2	NSW	30517	Suttons Homebush Nissan	Feb 2017					31/05/2017	DNE40Z	24/11/2017	MR ANDREW BALLAS			R	 33,713.64					      233.76	CVP AUGUST 2017	
2410700	T32	 XTRAIL2PASTL2	NSW	30517	Suttons Homebush Nissan	Feb 2017					31/05/2017	DNE40Z	24/11/2017	MR ANDREW BALLAS			R	 33,713.64					      192.51	CVP SEPTEMBER 2017	
2410700	T32	 XTRAIL2PASTL2	NSW	30517	Suttons Homebush Nissan	Feb 2017					31/05/2017	DNE40Z	24/11/2017	MR ANDREW BALLAS			R	 33,713.64					      192.51	CVP OCTOBER 2017	
2410717	T32	 XTRAIL2PASTL2	NSW	30517	Suttons Homebush Nissan	Feb 2017					21/07/2017	DPS92M	08/03/2018	MRS PETAH LILJEQVIST			R	 33,263.64					      134.00	T32W ORC CONTRIBUTION SERIES 2	
2410717	T32	 XTRAIL2PASTL2	NSW	30517	Suttons Homebush Nissan	Feb 2017					21/07/2017	DPS92M	08/03/2018	MRS PETAH LILJEQVIST			R	 33,263.64					    1,363.63	SERIES 2 XTRAIL RETAIL BONUS	
2410717	T32	 XTRAIL2PASTL2	NSW	30517	Suttons Homebush Nissan	Feb 2017					21/07/2017	DPS92M	08/03/2018	MRS PETAH LILJEQVIST			R	 33,263.64					      454.54	SERIES 2 XTRAIL AGED STOCK BONUS	
2410717	T32	 XTRAIL2PASTL2	NSW	30517	Suttons Homebush Nissan	Feb 2017					21/07/2017	DPS92M	08/03/2018	MRS PETAH LILJEQVIST			R	 33,263.64					      211.14	CVP JULY 2017	
2410717	T32	 XTRAIL2PASTL2	NSW	30517	Suttons Homebush Nissan	Feb 2017					21/07/2017	DPS92M	08/03/2018	MRS PETAH LILJEQVIST			R	 33,263.64					      233.76	CVP AUGUST 2017	
2410717	T32	 XTRAIL2PASTL2	NSW	30517	Suttons Homebush Nissan	Feb 2017					21/07/2017	DPS92M	08/03/2018	MRS PETAH LILJEQVIST			R	 33,263.64					      192.51	CVP SEPTEMBER 2017	
2410717	T32	 XTRAIL2PASTL2	NSW	30517	Suttons Homebush Nissan	Feb 2017					21/07/2017	DPS92M	08/03/2018	MRS PETAH LILJEQVIST			R	 33,263.64					      192.51	CVP OCTOBER 2017	
2410717	T32	 XTRAIL2PASTL2	NSW	30517	Suttons Homebush Nissan	Feb 2017					21/07/2017	DPS92M	08/03/2018	MRS PETAH LILJEQVIST			R	 33,263.64					      181.81	CVP NOVEMBER 2017	
2410717	T32	 XTRAIL2PASTL2	NSW	30517	Suttons Homebush Nissan	Feb 2017					21/07/2017	DPS92M	08/03/2018	MRS PETAH LILJEQVIST			R	 33,263.64					      187.01	CVP DECEMBER 2017	
2410660	T32	 XTRAIL2PASTL2	NSW	30517	Suttons Homebush Nissan	Feb 2017					21/07/2017	DPS92J	29/10/2018	SUTTONS HOMEBUSH NISSAN			X	 33,263.64					    2,275.00	Z CAR PAYMENT	
2410660	T32	 XTRAIL2PASTL2	NSW	30517	Suttons Homebush Nissan	Feb 2017					21/07/2017	DPS92J	29/10/2018	SUTTONS HOMEBUSH NISSAN			X	 33,263.64					      211.14	CVP JULY 2017	
2410660	T32	 XTRAIL2PASTL2	NSW	30517	Suttons Homebush Nissan	Feb 2017					21/07/2017	DPS92J	29/10/2018	SUTTONS HOMEBUSH NISSAN			X	 33,263.64					      233.76	CVP AUGUST 2017	
2410660	T32	 XTRAIL2PASTL2	NSW	30517	Suttons Homebush Nissan	Feb 2017					21/07/2017	DPS92J	29/10/2018	SUTTONS HOMEBUSH NISSAN			X	 33,263.64					      192.51	CVP SEPTEMBER 2017	
2410660	T32	 XTRAIL2PASTL2	NSW	30517	Suttons Homebush Nissan	Feb 2017					21/07/2017	DPS92J	29/10/2018	SUTTONS HOMEBUSH NISSAN			X	 33,263.64					      192.51	CVP OCTOBER 2017	
2410660	T32	 XTRAIL2PASTL2	NSW	30517	Suttons Homebush Nissan	Feb 2017					21/07/2017	DPS92J	29/10/2018	SUTTONS HOMEBUSH NISSAN			X	 33,263.64					      181.81	CVP NOVEMBER 2017	
2410660	T32	 XTRAIL2PASTL2	NSW	30517	Suttons Homebush Nissan	Feb 2017					21/07/2017	DPS92J	29/10/2018	SUTTONS HOMEBUSH NISSAN			X	 33,263.64					      187.01	CVP DECEMBER 2017	
2417670	T32	 XTRAIL2PASTL2	NSW	30517	Suttons Homebush Nissan	Mar 2017	18/07/2017	MISS REBECCA BELL			31/07/2017	DPS92U		MISS REBECCA BELL	SG Fleet	104699	I	 33,263.64					      500.00	T32 PARTNER FLEET BONUS - SERIES 2	
2417670	T32	 XTRAIL2PASTL2	NSW	30517	Suttons Homebush Nissan	Mar 2017	18/07/2017	MISS REBECCA BELL			31/07/2017	DPS92U		MISS REBECCA BELL	SG Fleet	104699	I	 33,263.64					    1,350.00	Dealer Fleet Claim authorised 01/08/2017	
2431285	T32	 XTRAIL2PASTL2	NSW	30517	Suttons Homebush Nissan	May 2017					19/09/2017	DQN77U	31/05/2018	SUTTONS HOMEBUSH NISSAN			X	 33,713.64					    1,775.00	T32W ORC CONTRIBUTION SERIES 2	
2431285	T32	 XTRAIL2PASTL2	NSW	30517	Suttons Homebush Nissan	May 2017					19/09/2017	DQN77U	31/05/2018	SUTTONS HOMEBUSH NISSAN			X	 33,713.64					      454.54	SERIES 2 XTRAIL AGED STOCK BONUS	
2431285	T32	 XTRAIL2PASTL2	NSW	30517	Suttons Homebush Nissan	May 2017					19/09/2017	DQN77U	31/05/2018	SUTTONS HOMEBUSH NISSAN			X	 33,713.64					      363.63	SEP 17 FAST START	
2431285	T32	 XTRAIL2PASTL2	NSW	30517	Suttons Homebush Nissan	May 2017					19/09/2017	DQN77U	31/05/2018	SUTTONS HOMEBUSH NISSAN			X	 33,713.64					      192.51	CVP SEPTEMBER 2017	
2431285	T32	 XTRAIL2PASTL2	NSW	30517	Suttons Homebush Nissan	May 2017					19/09/2017	DQN77U	31/05/2018	SUTTONS HOMEBUSH NISSAN			X	 33,713.64					      192.62	CVP OCTOBER 2017	
2431285	T32	 XTRAIL2PASTL2	NSW	30517	Suttons Homebush Nissan	May 2017					19/09/2017	DQN77U	31/05/2018	SUTTONS HOMEBUSH NISSAN			X	 33,713.64					      181.81	CVP NOVEMBER 2017	
2431285	T32	 XTRAIL2PASTL2	NSW	30517	Suttons Homebush Nissan	May 2017					19/09/2017	DQN77U	31/05/2018	SUTTONS HOMEBUSH NISSAN			X	 33,713.64					      187.01	CVP DECEMBER 2017	
2431285	T32	 XTRAIL2PASTL2	NSW	30517	Suttons Homebush Nissan	May 2017					19/09/2017	DQN77U	31/05/2018	SUTTONS HOMEBUSH NISSAN			X	 33,713.64					      204.54	CVP JANUARY 2018	
2431285	T32	 XTRAIL2PASTL2	NSW	30517	Suttons Homebush Nissan	May 2017					19/09/2017	DQN77U	31/05/2018	SUTTONS HOMEBUSH NISSAN			X	 33,713.64					      218.18	CVP FEBRUARY 2018	
2431348	T32	 XTRAIL2PASTL2	NSW	30517	Suttons Homebush Nissan	May 2017					31/07/2017	DTG45L	01/02/2018	MR JIN XI			R	 33,263.64					      134.00	T32W ORC CONTRIBUTION SERIES 2	
2431348	T32	 XTRAIL2PASTL2	NSW	30517	Suttons Homebush Nissan	May 2017					31/07/2017	DTG45L	01/02/2018	MR JIN XI			R	 33,263.64					    1,363.63	SERIES 2 XTRAIL RETAIL BONUS	
2431348	T32	 XTRAIL2PASTL2	NSW	30517	Suttons Homebush Nissan	May 2017					31/07/2017	DTG45L	01/02/2018	MR JIN XI			R	 33,263.64					      454.54	SERIES 2 XTRAIL AGED STOCK BONUS	
2431348	T32	 XTRAIL2PASTL2	NSW	30517	Suttons Homebush Nissan	May 2017					31/07/2017	DTG45L	01/02/2018	MR JIN XI			R	 33,263.64					      211.14	CVP JULY 2017	
2431348	T32	 XTRAIL2PASTL2	NSW	30517	Suttons Homebush Nissan	May 2017					31/07/2017	DTG45L	01/02/2018	MR JIN XI			R	 33,263.64					      233.76	CVP AUGUST 2017	
2431348	T32	 XTRAIL2PASTL2	NSW	30517	Suttons Homebush Nissan	May 2017					31/07/2017	DTG45L	01/02/2018	MR JIN XI			R	 33,263.64					      192.51	CVP SEPTEMBER 2017	
2431348	T32	 XTRAIL2PASTL2	NSW	30517	Suttons Homebush Nissan	May 2017					31/07/2017	DTG45L	01/02/2018	MR JIN XI			R	 33,263.64					      192.51	CVP OCTOBER 2017	
2431348	T32	 XTRAIL2PASTL2	NSW	30517	Suttons Homebush Nissan	May 2017					31/07/2017	DTG45L	01/02/2018	MR JIN XI			R	 33,263.64					      181.81	CVP NOVEMBER 2017	
2431348	T32	 XTRAIL2PASTL2	NSW	30517	Suttons Homebush Nissan	May 2017					31/07/2017	DTG45L	01/02/2018	MR JIN XI			R	 33,263.64					      187.01	CVP DECEMBER 2017	
2431349	T32	 XTRAIL2PASTL2	NSW	30517	Suttons Homebush Nissan	May 2017					19/09/2017	DQN77V	31/10/2017	MS SUSAN WICKENDEN			R	 33,263.64					      134.00	T32W ORC CONTRIBUTION SERIES 2	
2431349	T32	 XTRAIL2PASTL2	NSW	30517	Suttons Homebush Nissan	May 2017					19/09/2017	DQN77V	31/10/2017	MS SUSAN WICKENDEN			R	 33,263.64					      363.63	SEP 17 FAST START	
2431349	T32	 XTRAIL2PASTL2	NSW	30517	Suttons Homebush Nissan	May 2017					19/09/2017	DQN77V	31/10/2017	MS SUSAN WICKENDEN			R	 33,263.64							
2431349	T32	 XTRAIL2PASTL2	NSW	30517	Suttons Homebush Nissan	May 2017					19/09/2017	DQN77V	31/10/2017	MS SUSAN WICKENDEN			R	 33,263.64					      192.62	CVP SEPTEMBER 2017	
2431272	T32	 XTRAIL2PASTL2	NSW	30517	Suttons Homebush Nissan	May 2017	30/08/2017	MR Petros Antoniou			31/08/2017	DQN76A		MR Petros Antoniou			R	 33,713.64							
2435551	T32	 XTRAIL2PASTL2	NSW	30517	Suttons Homebush Nissan	Jun 2017					30/09/2017	DQW91C	26/10/2018	SUTTONS HOMEBUSH NISSAN			D	 33,713.64					      152.22	CVP SEPTEMBER	
2435551	T32	 XTRAIL2PASTL2	NSW	30517	Suttons Homebush Nissan	Jun 2017					30/09/2017	DQW91C	26/10/2018	SUTTONS HOMEBUSH NISSAN			D	 33,713.64					    2,275.00	Z CAR PAYMENT	
2435551	T32	 XTRAIL2PASTL2	NSW	30517	Suttons Homebush Nissan	Jun 2017					30/09/2017	DQW91C	26/10/2018	SUTTONS HOMEBUSH NISSAN			D	 33,713.64					      192.51	CVP SEPTEMBER 2017	
2435551	T32	 XTRAIL2PASTL2	NSW	30517	Suttons Homebush Nissan	Jun 2017					30/09/2017	DQW91C	26/10/2018	SUTTONS HOMEBUSH NISSAN			D	 33,713.64					      192.51	CVP OCTOBER 2017	
2435551	T32	 XTRAIL2PASTL2	NSW	30517	Suttons Homebush Nissan	Jun 2017					30/09/2017	DQW91C	26/10/2018	SUTTONS HOMEBUSH NISSAN			D	 33,713.64					      181.81	CVP NOVEMBER 2017	
2435551	T32	 XTRAIL2PASTL2	NSW	30517	Suttons Homebush Nissan	Jun 2017					30/09/2017	DQW91C	26/10/2018	SUTTONS HOMEBUSH NISSAN			D	 33,713.64					      187.01	CVP DECEMBER 2017	
2435551	T32	 XTRAIL2PASTL2	NSW	30517	Suttons Homebush Nissan	Jun 2017					30/09/2017	DQW91C	26/10/2018	SUTTONS HOMEBUSH NISSAN			D	 33,713.64					      204.54	CVP JANUARY 2018	
2435551	T32	 XTRAIL2PASTL2	NSW	30517	Suttons Homebush Nissan	Jun 2017					30/09/2017	DQW91C	26/10/2018	SUTTONS HOMEBUSH NISSAN			D	 33,713.64					      218.18	CVP FEBRUARY 2018	
2435632	T32	 XTRAIL2PASTL2	NSW	30517	Suttons Homebush Nissan	Jun 2017	31/07/2017	MS KIRBY NELSON			31/07/2017	DTZ45Z	05/02/2018	MS KIRBY NELSON			R	 33,713.64					      134.00	T32W ORC CONTRIBUTION SERIES 2	
2435632	T32	 XTRAIL2PASTL2	NSW	30517	Suttons Homebush Nissan	Jun 2017	31/07/2017	MS KIRBY NELSON			31/07/2017	DTZ45Z	05/02/2018	MS KIRBY NELSON			R	 33,713.64					    1,363.63	SERIES 2 XTRAIL RETAIL BONUS	
2435632	T32	 XTRAIL2PASTL2	NSW	30517	Suttons Homebush Nissan	Jun 2017	31/07/2017	MS KIRBY NELSON			31/07/2017	DTZ45Z	05/02/2018	MS KIRBY NELSON			R	 33,713.64					      454.54	SERIES 2 XTRAIL AGED STOCK BONUS	
2435632	T32	 XTRAIL2PASTL2	NSW	30517	Suttons Homebush Nissan	Jun 2017	31/07/2017	MS KIRBY NELSON			31/07/2017	DTZ45Z	05/02/2018	MS KIRBY NELSON			R	 33,713.64					      192.51	CVP SEPTEMBER 2017	
2435632	T32	 XTRAIL2PASTL2	NSW	30517	Suttons Homebush Nissan	Jun 2017	31/07/2017	MS KIRBY NELSON			31/07/2017	DTZ45Z	05/02/2018	MS KIRBY NELSON			R	 33,713.64					      192.51	CVP OCTOBER 2017	
2435632	T32	 XTRAIL2PASTL2	NSW	30517	Suttons Homebush Nissan	Jun 2017	31/07/2017	MS KIRBY NELSON			31/07/2017	DTZ45Z	05/02/2018	MS KIRBY NELSON			R	 33,713.64					      181.81	CVP NOVEMBER 2017	
2435632	T32	 XTRAIL2PASTL2	NSW	30517	Suttons Homebush Nissan	Jun 2017	31/07/2017	MS KIRBY NELSON			31/07/2017	DTZ45Z	05/02/2018	MS KIRBY NELSON			R	 33,713.64					      187.01	CVP DECEMBER 2017	
2435632	T32	 XTRAIL2PASTL2	NSW	30517	Suttons Homebush Nissan	Jun 2017	31/07/2017	MS KIRBY NELSON			31/07/2017	DTZ45Z	05/02/2018	MS KIRBY NELSON			R	 33,713.64					      204.54	CVP JANUARY 2018	
2435570	T32	 XTRAIL2PASTL2	NSW	30517	Suttons Homebush Nissan	Jun 2017	26/09/2017	MR KHYATI DUA			29/09/2017	TBA		MR KHYATI DUA	RACV SALARY SOLUTIONS PTY LTD	142960	I	 33,713.64					      500.00	T32 PARTNER FLEET BONUS - SERIES 2	
2435570	T32	 XTRAIL2PASTL2	NSW	30517	Suttons Homebush Nissan	Jun 2017	26/09/2017	MR KHYATI DUA			29/09/2017	TBA		MR KHYATI DUA	RACV SALARY SOLUTIONS PTY LTD	142960	I	 33,713.64					    1,350.00	Dealer Fleet Claim authorised 30/09/2017	
2440351	T32	 XTRAIL2PASTL2	NSW	30517	Suttons Homebush Nissan	Jul 2017	15/10/2017	MRS MY TRAN	P-201710150		30/10/2017	DSG18C		MRS MY TRAN			R	 34,163.64					      134.00	T32W ORC CONTRIBUTION SERIES 2	
2440351	T32	 XTRAIL2PASTL2	NSW	30517	Suttons Homebush Nissan	Jul 2017	15/10/2017	MRS MY TRAN	P-201710150		30/10/2017	DSG18C		MRS MY TRAN			R	 34,163.64							
2443887	T32	 XTRAIL2PASTL2	NSW	30517	Suttons Homebush Nissan	Jul 2017	23/10/2017	AUSTRALIAN BRUSHWARE CORPORATI			31/10/2017	TBA666		AUSTRALIAN BRUSHWARE CORPORATI	AUSTRALIAN BRUSHWARE CORPORATION PTY LTD	124646	N	 34,163.64					    2,350.00	Dealer Fleet Claim authorised 01/11/2017	
2443878	T32	 XTRAIL2PASTL2	NSW	30517	Suttons Homebush Nissan	Jul 2017	22/11/2017	MR TIANQI WANG	P-201711222		29/11/2017	CJU13P		MR TIANQI WANG			R	 33,718.18					      134.00	T32W ORC CONTRIBUTION SERIES 2	
2443878	T32	 XTRAIL2PASTL2	NSW	30517	Suttons Homebush Nissan	Jul 2017	22/11/2017	MR TIANQI WANG	P-201711222		29/11/2017	CJU13P		MR TIANQI WANG			R	 33,718.18					      454.55	NOV 17 CLOSING BONUS	
2443878	T32	 XTRAIL2PASTL2	NSW	30517	Suttons Homebush Nissan	Jul 2017	22/11/2017	MR TIANQI WANG	P-201711222		29/11/2017	CJU13P		MR TIANQI WANG			R	 33,718.18							
2443882	T32	 XTRAIL2PASTL2	NSW	30517	Suttons Homebush Nissan	Jul 2017	18/12/2017	MRS LEANNE BROWN			29/12/2017	TBA		MRS LEANNE BROWN			R	 33,718.18					      134.00	T32W ORC CONTRIBUTION SERIES 2	
2443882	T32	 XTRAIL2PASTL2	NSW	30517	Suttons Homebush Nissan	Jul 2017	18/12/2017	MRS LEANNE BROWN			29/12/2017	TBA		MRS LEANNE BROWN			R	 33,718.18					    1,363.63	SERIES 2 XTRAIL RETAIL BONUS	
2443882	T32	 XTRAIL2PASTL2	NSW	30517	Suttons Homebush Nissan	Jul 2017	18/12/2017	MRS LEANNE BROWN			29/12/2017	TBA		MRS LEANNE BROWN			R	 33,718.18					      454.54	BOXING DAY SALE	
2448540	T32	 XTRAIL2PASTL2	NSW	30517	Suttons Homebush Nissan	Sep 2017	17/12/2017	MR GREGORY WALLACE			28/12/2017	DSS35C		MR GREGORY WALLACE			R	 34,163.64					      134.00	T32W ORC CONTRIBUTION SERIES 2	
2448540	T32	 XTRAIL2PASTL2	NSW	30517	Suttons Homebush Nissan	Sep 2017	17/12/2017	MR GREGORY WALLACE			28/12/2017	DSS35C		MR GREGORY WALLACE			R	 34,163.64					    1,363.63	SERIES 2 XTRAIL RETAIL BONUS	
2448540	T32	 XTRAIL2PASTL2	NSW	30517	Suttons Homebush Nissan	Sep 2017	17/12/2017	MR GREGORY WALLACE			28/12/2017	DSS35C		MR GREGORY WALLACE			R	 34,163.64					      454.54	BOXING DAY SALE	
2448545	T32	 XTRAIL2PASTL2	NSW	30517	Suttons Homebush Nissan	Sep 2017	24/10/2017	MR MARK ROONEY	P-201710220		30/10/2017	DQW91Z		MR MARK ROONEY			R	 33,718.18					      134.00	T32W ORC CONTRIBUTION SERIES 2	
2448538	T32	 XTRAIL2PASTL2	NSW	30517	Suttons Homebush Nissan	Sep 2017	10/12/2017	K & B CORP PTY LTD			27/12/2017	DSS35H		K & B CORP PTY LTD			R	 33,718.18					    1,363.63	T32 RETAIL BONUS	
2448538	T32	 XTRAIL2PASTL2	NSW	30517	Suttons Homebush Nissan	Sep 2017	10/12/2017	K & B CORP PTY LTD			27/12/2017	DSS35H		K & B CORP PTY LTD			R	 33,718.18					      134.00	T32 ORC CONTRIBUTION	
2448539	T32	 XTRAIL2PASTL2	NSW	30517	Suttons Homebush Nissan	Sep 2017	26/11/2017	MR CAMERON ECCLESTON	P-201711241		30/11/2017	TBA		MR CAMERON ECCLESTON			R	 33,718.18					      134.00	T32W ORC CONTRIBUTION SERIES 2	
2448539	T32	 XTRAIL2PASTL2	NSW	30517	Suttons Homebush Nissan	Sep 2017	26/11/2017	MR CAMERON ECCLESTON	P-201711241		30/11/2017	TBA		MR CAMERON ECCLESTON			R	 33,718.18					      454.55	NOV 17 CLOSING BONUS	
2448539	T32	 XTRAIL2PASTL2	NSW	30517	Suttons Homebush Nissan	Sep 2017	26/11/2017	MR CAMERON ECCLESTON	P-201711241		30/11/2017	TBA		MR CAMERON ECCLESTON			R	 33,718.18							
2443352	T32	 XTRAIL2PASTL2	NSW	30517	Suttons Homebush Nissan	Sep 2017	29/10/2017	MISS KRYSTLE MCGILL	P-201710272		31/10/2017	DSG18Z		MISS KRYSTLE MCGILL			R	 34,163.64					      134.00	T32W ORC CONTRIBUTION SERIES 2	
2443352	T32	 XTRAIL2PASTL2	NSW	30517	Suttons Homebush Nissan	Sep 2017	29/10/2017	MISS KRYSTLE MCGILL	P-201710272		31/10/2017	DSG18Z		MISS KRYSTLE MCGILL			R	 34,163.64							
2448543	T32	 XTRAIL2PASTL2	NSW	30517	Suttons Homebush Nissan	Sep 2017					30/11/2017	DSS34W	20/03/2018	MR KANG LEE			R	 34,163.64					      134.00	T32W ORC CONTRIBUTION SERIES 2	
2448543	T32	 XTRAIL2PASTL2	NSW	30517	Suttons Homebush Nissan	Sep 2017					30/11/2017	DSS34W	20/03/2018	MR KANG LEE			R	 34,163.64					    1,363.63	SERIES 2 XTRAIL RETAIL BONUS	
2448543	T32	 XTRAIL2PASTL2	NSW	30517	Suttons Homebush Nissan	Sep 2017					30/11/2017	DSS34W	20/03/2018	MR KANG LEE			R	 34,163.64					      454.54	SERIES 2 XTRAIL AGED STOCK BONUS	
2448543	T32	 XTRAIL2PASTL2	NSW	30517	Suttons Homebush Nissan	Sep 2017					30/11/2017	DSS34W	20/03/2018	MR KANG LEE			R	 34,163.64					      181.81	CVP NOVEMBER 2017	
2448543	T32	 XTRAIL2PASTL2	NSW	30517	Suttons Homebush Nissan	Sep 2017					30/11/2017	DSS34W	20/03/2018	MR KANG LEE			R	 34,163.64					      187.01	CVP DECEMBER 2017	
2448543	T32	 XTRAIL2PASTL2	NSW	30517	Suttons Homebush Nissan	Sep 2017					30/11/2017	DSS34W	20/03/2018	MR KANG LEE			R	 34,163.64					      204.54	CVP JANUARY 2018	
2448543	T32	 XTRAIL2PASTL2	NSW	30517	Suttons Homebush Nissan	Sep 2017					30/11/2017	DSS34W	20/03/2018	MR KANG LEE			R	 34,163.64					      218.18	CVP FEBRUARY 2018	
2448541	T32	 XTRAIL2PASTL2	NSW	30517	Suttons Homebush Nissan	Sep 2017	24/12/2017	MR BEOMJIN CHOI			29/12/2017	DSS35Q		MR BEOMJIN CHOI			R	 34,163.64					      134.00	T32W ORC CONTRIBUTION SERIES 2	
2448541	T32	 XTRAIL2PASTL2	NSW	30517	Suttons Homebush Nissan	Sep 2017	24/12/2017	MR BEOMJIN CHOI			29/12/2017	DSS35Q		MR BEOMJIN CHOI			R	 34,163.64					    1,363.63	SERIES 2 XTRAIL RETAIL BONUS	
2448541	T32	 XTRAIL2PASTL2	NSW	30517	Suttons Homebush Nissan	Sep 2017	24/12/2017	MR BEOMJIN CHOI			29/12/2017	DSS35Q		MR BEOMJIN CHOI			R	 34,163.64					      454.54	BOXING DAY SALE	
2446709	T32	 XTRAIL2PASTL2	NSW	30517	Suttons Homebush Nissan	Oct 2017	19/01/2018	MR YIJAN LIN			22/01/2018	DTE01R		MR YIJAN LIN			R	 33,718.18					      909.09	SERIES 2 XTRAIL RETAIL BONUS - 18 COMPLIANCE	
2454150	T32	 XTRAIL2PASTL2	NSW	30517	Suttons Homebush Nissan	Oct 2017	20/12/2017	MR JOSEPH CHARBEL			27/12/2017	DSS35F		MR JOSEPH CHARBEL			R	 34,163.64					      134.00	T32W ORC CONTRIBUTION SERIES 2	
2454150	T32	 XTRAIL2PASTL2	NSW	30517	Suttons Homebush Nissan	Oct 2017	20/12/2017	MR JOSEPH CHARBEL			27/12/2017	DSS35F		MR JOSEPH CHARBEL			R	 34,163.64					    1,363.63	SERIES 2 XTRAIL RETAIL BONUS	
2454150	T32	 XTRAIL2PASTL2	NSW	30517	Suttons Homebush Nissan	Oct 2017	20/12/2017	MR JOSEPH CHARBEL			27/12/2017	DSS35F		MR JOSEPH CHARBEL			R	 34,163.64					      454.54	BOXING DAY SALE	
2457546	T32	 XTRAIL2PASTL2	NSW	30517	Suttons Homebush Nissan	Oct 2017	14/01/2018	MR TOBY BROWN			22/01/2018	DTE01P		MR TOBY BROWN			R	 34,318.18					      909.09	SERIES 2 XTRAIL RETAIL BONUS - 18 COMPLIANCE	
2457664	T32	 XTRAIL2PASTL2	NSW	30517	Suttons Homebush Nissan	Oct 2017	04/02/2018	MRS PERDAG TEMIZYUZ			09/02/2018	DTX17A		MRS PERDAG TEMIZYUZ			R	 34,318.18					      134.00	T32W ORC CONTRIBUTION SERIES 2	
2457664	T32	 XTRAIL2PASTL2	NSW	30517	Suttons Homebush Nissan	Oct 2017	04/02/2018	MRS PERDAG TEMIZYUZ			09/02/2018	DTX17A		MRS PERDAG TEMIZYUZ			R	 34,318.18					    1,363.63	SERIES 2 XTRAIL RETAIL BONUS	
2410803	T32	 XTRAIL2PAST2	NSW	30517	Suttons Homebush Nissan	Feb 2017	03/09/2017	MR KONDAL VEERANNAGARI			06/09/2017	DQN76F		MR KONDAL VEERANNAGARI			R	 28,168.18					      454.54	T32 SERIES 2 RETAIL BONUS	
2410803	T32	 XTRAIL2PAST2	NSW	30517	Suttons Homebush Nissan	Feb 2017	03/09/2017	MR KONDAL VEERANNAGARI			06/09/2017	DQN76F		MR KONDAL VEERANNAGARI			R	 28,168.18					      363.63	SEP 17 FAST START	
2410927	T32	 XTRAIL2PAST2	NSW	30517	Suttons Homebush Nissan	Feb 2017	16/08/2017	SPECIALIST WHOLESALERS			28/08/2017	CM64JL		SPECIALIST WHOLESALERS	Specialist Wholesalers	144463	W	 27,718.18					    3,000.00	Dealer Fleet Claim authorised 29/08/2017	
2410933	T32	 XTRAIL2PAST2	NSW	30517	Suttons Homebush Nissan	Feb 2017	18/07/2017	SPECIALIST WHOLESALERS			31/07/2017	TBA		SPECIALIST WHOLESALERS	Specialist Wholesalers	144463	W	 27,718.18					    3,000.00	Dealer Fleet Claim authorised 01/08/2017	
2410934	T32	 XTRAIL2PAST2	NSW	30517	Suttons Homebush Nissan	Feb 2017	18/07/2017	SPECIALIST WHOLESALERS			31/07/2017	TBA		SPECIALIST WHOLESALERS	Specialist Wholesalers	144463	W	 27,718.18					    3,000.00	Dealer Fleet Claim authorised 01/08/2017	
2417750	T32	 XTRAIL2PAST2	NSW	30517	Suttons Homebush Nissan	Mar 2017					31/05/2017	DNF02F	19/09/2017	MR KWON HOON LEE			R	 27,718.18					      454.54	T32 SERIES 2 RETAIL BONUS	
2417750	T32	 XTRAIL2PAST2	NSW	30517	Suttons Homebush Nissan	Mar 2017					31/05/2017	DNF02F	19/09/2017	MR KWON HOON LEE			R	 27,718.18					      133.58	CVP MAY 2017	
2417750	T32	 XTRAIL2PAST2	NSW	30517	Suttons Homebush Nissan	Mar 2017					31/05/2017	DNF02F	19/09/2017	MR KWON HOON LEE			R	 27,718.18					      211.14	CVP JULY 2017	
2417750	T32	 XTRAIL2PAST2	NSW	30517	Suttons Homebush Nissan	Mar 2017					31/05/2017	DNF02F	19/09/2017	MR KWON HOON LEE			R	 27,718.18					      233.76	CVP AUGUST 2017	
2423420	T32	 XTRAIL2PAST2	NSW	30517	Suttons Homebush Nissan	Apr 2017	10/09/2017	AUSTRALASIAN FOOD GROUP PTY. L			31/10/2017	TBA555		AUSTRALASIAN FOOD GROUP PTY. L	Australasian Food Group Pty. Ltd	144993	N	 28,172.73	70906	 5,822.73	   500.00	  450.00	    3,350.00	Dealer Fleet Claim authorised 15/11/2017	
2423745	T32	 XTRAIL2PAST2	NSW	30517	Suttons Homebush Nissan	Apr 2017	11/07/2017	AUSTRALASIAN FOOD GROUP PTY. L			12/07/2017	CM32JL		AUSTRALASIAN FOOD GROUP PTY. L	Australasian Food Group Pty. Ltd	144993	N	 27,718.18	68361	 5,368.18	 1,000.00	  450.00	    3,350.00	Dealer Fleet Claim authorised 13/07/2017	
2423746	T32	 XTRAIL2PAST2	NSW	30517	Suttons Homebush Nissan	Apr 2017	10/07/2017	CUSTOM SERVICE LEASING			18/07/2017	CM34JL		CUSTOM SERVICE LEASING	Australasian Food Group Pty. Ltd	144993	N	 27,718.18	68361	 5,368.18	 1,000.00	  450.00	    3,350.00	Dealer Fleet Claim authorised 19/07/2017	
2423748	T32	 XTRAIL2PAST2	NSW	30517	Suttons Homebush Nissan	Apr 2017	10/07/2017	CUSTOM SERVICE LEASING			18/07/2017	CM37JL		CUSTOM SERVICE LEASING	Australasian Food Group Pty. Ltd	144993	N	 27,718.18	68361	 5,368.18	 1,000.00	  450.00	    3,350.00	Dealer Fleet Claim authorised 19/07/2017	
2423749	T32	 XTRAIL2PAST2	NSW	30517	Suttons Homebush Nissan	Apr 2017	10/07/2017	CUSTOM SERVICE LEASING			18/07/2017	CM45JL		CUSTOM SERVICE LEASING	GRUMA OCEANIA PTY LTD	133471	N	 27,718.18	68358	 5,368.18	 1,000.00	  450.00	    3,350.00	Dealer Fleet Claim authorised 19/07/2017	
2423723	T32	 XTRAIL2PAST2	NSW	30517	Suttons Homebush Nissan	Apr 2017	02/07/2017	MR ARTHUR RONIS			17/07/2017	DNH77F		MR ARTHUR RONIS			R	 27,718.18							
2423733	T32	 XTRAIL2PAST2	NSW	30517	Suttons Homebush Nissan	Apr 2017	22/08/2017	MAX GLASS PTY LTD			31/08/2017	DQC62U		MAX GLASS PTY LTD			R	 27,718.18							
2430941	T32	 XTRAIL2PAST2	NSW	30517	Suttons Homebush Nissan	May 2017	18/07/2017	AGFA-GEVAERT LTD			31/07/2017	CM52JL		AGFA-GEVAERT LTD	Agfa-Gevaert Ltd	103576	N	 28,168.18					    2,350.00	Dealer Fleet Claim authorised 01/08/2017	
2449079	T32	 XTRAIL2PAST2	NSW	30517	Suttons Homebush Nissan	Aug 2017	17/09/2017	MR STEVEN CATTERMOLE			25/09/2017	DQN77Q		MR STEVEN CATTERMOLE			R	 27,718.18					      454.54	T32 SERIES 2 RETAIL BONUS	
2449079	T32	 XTRAIL2PAST2	NSW	30517	Suttons Homebush Nissan	Aug 2017	17/09/2017	MR STEVEN CATTERMOLE			25/09/2017	DQN77Q		MR STEVEN CATTERMOLE			R	 27,718.18					      363.63	SEP 17 FAST START	
2445819	T32	 XTRAIL2PAST2	NSW	30517	Suttons Homebush Nissan	Aug 2017	29/08/2017	GREYHOUND RACING NEW SOUTH WAL			31/08/2017	TBA		GREYHOUND RACING NEW SOUTH WAL	Greyhound Racing New South Wales	144946	S	 27,718.18							
2445812	T32	 XTRAIL2PAST2	NSW	30517	Suttons Homebush Nissan	Aug 2017					19/09/2017	DQN77X	31/05/2018	SUTTONS HOMEBUSH NISSAN			D	 27,718.18					      454.54	SERIES 2 XTRAIL AGED STOCK BONUS	
2445812	T32	 XTRAIL2PAST2	NSW	30517	Suttons Homebush Nissan	Aug 2017					19/09/2017	DQN77X	31/05/2018	SUTTONS HOMEBUSH NISSAN			D	 27,718.18					      363.63	SEP 17 FAST START	
2445812	T32	 XTRAIL2PAST2	NSW	30517	Suttons Homebush Nissan	Aug 2017					19/09/2017	DQN77X	31/05/2018	SUTTONS HOMEBUSH NISSAN			D	 27,718.18					      192.51	CVP SEPTEMBER 2017	
2445812	T32	 XTRAIL2PAST2	NSW	30517	Suttons Homebush Nissan	Aug 2017					19/09/2017	DQN77X	31/05/2018	SUTTONS HOMEBUSH NISSAN			D	 27,718.18					      192.51	CVP OCTOBER 2017	
2445812	T32	 XTRAIL2PAST2	NSW	30517	Suttons Homebush Nissan	Aug 2017					19/09/2017	DQN77X	31/05/2018	SUTTONS HOMEBUSH NISSAN			D	 27,718.18					      181.81	CVP NOVEMBER 2017	
2445812	T32	 XTRAIL2PAST2	NSW	30517	Suttons Homebush Nissan	Aug 2017					19/09/2017	DQN77X	31/05/2018	SUTTONS HOMEBUSH NISSAN			D	 27,718.18					      187.01	CVP DECEMBER 2017	
2445812	T32	 XTRAIL2PAST2	NSW	30517	Suttons Homebush Nissan	Aug 2017					19/09/2017	DQN77X	31/05/2018	SUTTONS HOMEBUSH NISSAN			D	 27,718.18					      204.54	CVP JANUARY 2018	
2445812	T32	 XTRAIL2PAST2	NSW	30517	Suttons Homebush Nissan	Aug 2017					19/09/2017	DQN77X	31/05/2018	SUTTONS HOMEBUSH NISSAN			D	 27,718.18					      218.18	CVP FEBRUARY 2018	
2443120	T32	 XTRAIL2PAST2	NSW	30517	Suttons Homebush Nissan	Aug 2017	10/10/2017	MS SARAH LYNCH			19/10/2017	DQW91P		MS SARAH LYNCH	Nissan Dealership Employee	105841	E	 28,168.18					    3,000.00	Dealer Fleet Claim authorised 20/10/2017	
2449081	T32	 XTRAIL2PAST2	NSW	30517	Suttons Homebush Nissan	Aug 2017	23/10/2017	ST JOHN AMBULANCE - NSW			24/10/2017	CN92CM		ST JOHN AMBULANCE - NSW	ST JOHN AMBULANCE - NSW	130067	Y	 27,718.18					    2,350.00	Dealer Fleet Claim authorised 25/10/2017	
2449083	T32	 XTRAIL2PAST2	NSW	30517	Suttons Homebush Nissan	Aug 2017	22/10/2017	MS JESSICA LINDSAY NEWMAN	P-201710210		26/10/2017	DQW91W		MS JESSICA LINDSAY NEWMAN			R	 27,718.18							
2448528	T32	 XTRAIL2PAST2	NSW	30517	Suttons Homebush Nissan	Sep 2017	30/10/2017	AUSTRALASIAN FOOD GROUP PTY. L			31/10/2017	TBA555		AUSTRALASIAN FOOD GROUP PTY. L	Australasian Food Group Pty. Ltd	144993	N	 28,172.73	70906	 5,822.73	   500.00	  450.00	    3,350.00	Dealer Fleet Claim authorised 15/11/2017	
2448537	T32	 XTRAIL2PAST2	NSW	30517	Suttons Homebush Nissan	Sep 2017	24/10/2017	COMMONWEALTH OF AUSTRALIA			31/10/2017	TAB444		COMMONWEALTH OF AUSTRALIA	Dasfleet Government Sales	66700	C	 28,172.73	70977	 6,250.00	 1,500.00	  400.00	    1,500.00	Dealer Fleet Claim authorised 15/11/2017	
2448530	T32	 XTRAIL2PAST2	NSW	30517	Suttons Homebush Nissan	Sep 2017					31/10/2017	DSG19D	18/06/2018	SUTTONS HOMEBUSH NISSAN			D	 28,172.73					      454.54	SERIES 2 XTRAIL AGED STOCK BONUS	
2448530	T32	 XTRAIL2PAST2	NSW	30517	Suttons Homebush Nissan	Sep 2017					31/10/2017	DSG19D	18/06/2018	SUTTONS HOMEBUSH NISSAN			D	 28,172.73					      192.51	CVP OCTOBER 2017	
2448530	T32	 XTRAIL2PAST2	NSW	30517	Suttons Homebush Nissan	Sep 2017					31/10/2017	DSG19D	18/06/2018	SUTTONS HOMEBUSH NISSAN			D	 28,172.73					      181.81	CVP NOVEMBER 2017	
2448530	T32	 XTRAIL2PAST2	NSW	30517	Suttons Homebush Nissan	Sep 2017					31/10/2017	DSG19D	18/06/2018	SUTTONS HOMEBUSH NISSAN			D	 28,172.73					      187.01	CVP DECEMBER 2017	
2448530	T32	 XTRAIL2PAST2	NSW	30517	Suttons Homebush Nissan	Sep 2017					31/10/2017	DSG19D	18/06/2018	SUTTONS HOMEBUSH NISSAN			D	 28,172.73					      204.54	CVP JANUARY 2018	
2448530	T32	 XTRAIL2PAST2	NSW	30517	Suttons Homebush Nissan	Sep 2017					31/10/2017	DSG19D	18/06/2018	SUTTONS HOMEBUSH NISSAN			D	 28,172.73					      218.18	CVP FEBRUARY 2018	
2448530	T32	 XTRAIL2PAST2	NSW	30517	Suttons Homebush Nissan	Sep 2017					31/10/2017	DSG19D	18/06/2018	SUTTONS HOMEBUSH NISSAN			D	 28,172.73					      251.74	CVP MARCH 2018	
2448531	T32	 XTRAIL2PAST2	NSW	30517	Suttons Homebush Nissan	Sep 2017	12/11/2017	MR CUNQI FENG	P-201711120		17/11/2017	DSG19G		MR CUNQI FENG			R	 28,172.73							
2448532	T32	 XTRAIL2PAST2	NSW	30517	Suttons Homebush Nissan	Sep 2017	19/01/2018	MR HAN JIANG			29/01/2018	DTE01T		MR HAN JIANG			R	 28,172.73					    1,363.63	SERIES 2 XTRAIL RETAIL BONUS	
2448533	T32	 XTRAIL2PAST2	NSW	30517	Suttons Homebush Nissan	Sep 2017	30/01/2018	MR TIMOTHY HEATON			31/01/2018	DTX17D		MR TIMOTHY HEATON			R	 28,172.73					    1,363.63	SERIES 2 XTRAIL RETAIL BONUS	
2448489	T32	 XTRAIL2PAST2	NSW	30517	Suttons Homebush Nissan	Sep 2017					31/10/2017	DSG19E	18/06/2018	SUTTONS HOMEBUSH NISSAN			D	 28,622.73					      454.54	SERIES 2 XTRAIL AGED STOCK BONUS	
2448489	T32	 XTRAIL2PAST2	NSW	30517	Suttons Homebush Nissan	Sep 2017					31/10/2017	DSG19E	18/06/2018	SUTTONS HOMEBUSH NISSAN			D	 28,622.73					      192.51	CVP OCTOBER 2017	
2448489	T32	 XTRAIL2PAST2	NSW	30517	Suttons Homebush Nissan	Sep 2017					31/10/2017	DSG19E	18/06/2018	SUTTONS HOMEBUSH NISSAN			D	 28,622.73					      181.81	CVP NOVEMBER 2017	
2448489	T32	 XTRAIL2PAST2	NSW	30517	Suttons Homebush Nissan	Sep 2017					31/10/2017	DSG19E	18/06/2018	SUTTONS HOMEBUSH NISSAN			D	 28,622.73					      187.01	CVP DECEMBER 2017	
2448489	T32	 XTRAIL2PAST2	NSW	30517	Suttons Homebush Nissan	Sep 2017					31/10/2017	DSG19E	18/06/2018	SUTTONS HOMEBUSH NISSAN			D	 28,622.73					      204.54	CVP JANUARY 2018	
2448489	T32	 XTRAIL2PAST2	NSW	30517	Suttons Homebush Nissan	Sep 2017					31/10/2017	DSG19E	18/06/2018	SUTTONS HOMEBUSH NISSAN			D	 28,622.73					      218.18	CVP FEBRUARY 2018	
2448489	T32	 XTRAIL2PAST2	NSW	30517	Suttons Homebush Nissan	Sep 2017					31/10/2017	DSG19E	18/06/2018	SUTTONS HOMEBUSH NISSAN			D	 28,622.73					      251.74	CVP MARCH 2018	
2454147	T32	 XTRAIL2PAST2	NSW	30517	Suttons Homebush Nissan	Oct 2017	14/01/2018	MRS SUKHEE JOO			31/01/2018	DTG45F		MRS SUKHEE JOO			R	 28,622.73					    1,363.63	SERIES 2 XTRAIL RETAIL BONUS	
2454147	T32	 XTRAIL2PAST2	NSW	30517	Suttons Homebush Nissan	Oct 2017	14/01/2018	MRS SUKHEE JOO			31/01/2018	DTG45F		MRS SUKHEE JOO			R	 28,622.73					      454.54	NISSAN LOYALTY PROGRAM	
2454146	T32	 XTRAIL2PAST2	NSW	30517	Suttons Homebush Nissan	Oct 2017	10/12/2017	AUSTRALIAN BRUSHWARE CORPORATI			31/01/2018	DTX17J		AUSTRALIAN BRUSHWARE CORPORATI	AUSTRALIAN BRUSHWARE CORPORATION PTY LTD	124646	N	 28,172.73	71604	 6,800.00	   700.00	  450.00	    3,540.23	Dealer Fleet Claim authorised 01/02/2018	
2457737	T32	 XTRAIL2PAST2	NSW	30517	Suttons Homebush Nissan	Oct 2017	06/11/2017	DASFLEET GOVERNMENT SALES			29/12/2017	TBA		DASFLEET GOVERNMENT SALES	Dasfleet Government Sales	66700	C	 28,622.73							
2457758	T32	 XTRAIL2PAST2	NSW	30517	Suttons Homebush Nissan	Oct 2017	16/11/2017	MR HOOMIKO SUSHI	P-201711152		30/11/2017	DSG19V		MR HOOMIKO SUSHI			R	 28,622.73							
2464711	T32	 XTRAIL2PAST2	NSW	30517	Suttons Homebush Nissan	Nov 2017	20/12/2017	SG FLEET			28/02/2018	CN96YH		SG FLEET	SG Fleet	106820	S	 28,622.73							
2464692	T32	 XTRAIL2PAST2	NSW	30517	Suttons Homebush Nissan	Nov 2017	10/12/2017	AUSTRALIAN BRUSHWARE CORPORATI			31/01/2018	DTX17H		AUSTRALIAN BRUSHWARE CORPORATI	AUSTRALIAN BRUSHWARE CORPORATION PTY LTD	124646	N	 28,172.73	71604	 6,800.00	   700.00	  450.00	    3,540.23	Dealer Fleet Claim authorised 01/02/2018	
2452998	T32	 XTRAIL2PAST2	NSW	30517	Suttons Homebush Nissan	Jan 2018	06/02/2018	MR HYUNIL JUNG			28/02/2018	DTX16A		MR HYUNIL JUNG			R	 28,672.73					    1,363.63	SERIES 2 XTRAIL RETAIL BONUS	
2452999	T32	 XTRAIL2PAST2	NSW	30517	Suttons Homebush Nissan	Jan 2018	16/02/2018	J S PARK & K J PARK			28/02/2018	DTX16H		J S PARK & K J PARK			R	 28,672.73					    1,363.63	SERIES 2 XTRAIL RETAIL BONUS	
2453003	T32	 XTRAIL2PAST2	NSW	30517	Suttons Homebush Nissan	Jan 2018					28/02/2018	DTX16N		SUTTONS HOMEBUSH NISSAN			X	 28,672.73					      218.18	CVP FEBRUARY 2018	
2453003	T32	 XTRAIL2PAST2	NSW	30517	Suttons Homebush Nissan	Jan 2018					28/02/2018	DTX16N		SUTTONS HOMEBUSH NISSAN			X	 28,672.73					      251.74	CVP MARCH 2018	
2453003	T32	 XTRAIL2PAST2	NSW	30517	Suttons Homebush Nissan	Jan 2018					28/02/2018	DTX16N		SUTTONS HOMEBUSH NISSAN			X	 28,672.73					      225.70	CVP APRIL 2018	
2453003	T32	 XTRAIL2PAST2	NSW	30517	Suttons Homebush Nissan	Jan 2018					28/02/2018	DTX16N		SUTTONS HOMEBUSH NISSAN			X	 28,672.73					      233.76	CVP MAY 2018	
2453003	T32	 XTRAIL2PAST2	NSW	30517	Suttons Homebush Nissan	Jan 2018					28/02/2018	DTX16N		SUTTONS HOMEBUSH NISSAN			X	 28,672.73					      163.63	CVP JULY 2018	
2410962	T32	 XTRAIL2PA7STL2	NSW	30517	Suttons Homebush Nissan	Feb 2017					31/05/2017	DNF02W	23/11/2017	MR SANDRO LI-CAUSI			R	 35,077.27							
2410962	T32	 XTRAIL2PA7STL2	NSW	30517	Suttons Homebush Nissan	Feb 2017					31/05/2017	DNF02W	23/11/2017	MR SANDRO LI-CAUSI			R	 35,077.27					      133.58	CVP MAY 2017	
2410962	T32	 XTRAIL2PA7STL2	NSW	30517	Suttons Homebush Nissan	Feb 2017					31/05/2017	DNF02W	23/11/2017	MR SANDRO LI-CAUSI			R	 35,077.27					      211.14	CVP JULY 2017	
2410962	T32	 XTRAIL2PA7STL2	NSW	30517	Suttons Homebush Nissan	Feb 2017					31/05/2017	DNF02W	23/11/2017	MR SANDRO LI-CAUSI			R	 35,077.27					      233.76	CVP AUGUST 2017	
2410962	T32	 XTRAIL2PA7STL2	NSW	30517	Suttons Homebush Nissan	Feb 2017					31/05/2017	DNF02W	23/11/2017	MR SANDRO LI-CAUSI			R	 35,077.27					      192.51	CVP SEPTEMBER 2017	
2410962	T32	 XTRAIL2PA7STL2	NSW	30517	Suttons Homebush Nissan	Feb 2017					31/05/2017	DNF02W	23/11/2017	MR SANDRO LI-CAUSI			R	 35,077.27					      192.51	CVP OCTOBER 2017	
2410989	T32	 XTRAIL2PA7STL2	NSW	30517	Suttons Homebush Nissan	Feb 2017	31/08/2017	MR THANH TON DUONG			31/08/2017	DQN76G		MR THANH TON DUONG			R	 34,627.27							
2410956	T32	 XTRAIL2PA7STL2	NSW	30517	Suttons Homebush Nissan	Feb 2017					30/09/2017	DTX16E	28/02/2018	MR PRADEEP VELDANDI			R	 34,627.27					    1,363.63	SERIES 2 XTRAIL RETAIL BONUS	
2410956	T32	 XTRAIL2PA7STL2	NSW	30517	Suttons Homebush Nissan	Feb 2017					30/09/2017	DTX16E	28/02/2018	MR PRADEEP VELDANDI			R	 34,627.27					      454.54	SERIES 2 XTRAIL AGED STOCK BONUS	
2410956	T32	 XTRAIL2PA7STL2	NSW	30517	Suttons Homebush Nissan	Feb 2017					30/09/2017	DTX16E	28/02/2018	MR PRADEEP VELDANDI			R	 34,627.27					      192.51	CVP SEPTEMBER 2017	
2410956	T32	 XTRAIL2PA7STL2	NSW	30517	Suttons Homebush Nissan	Feb 2017					30/09/2017	DTX16E	28/02/2018	MR PRADEEP VELDANDI			R	 34,627.27					      192.51	CVP OCTOBER 2017	
2410956	T32	 XTRAIL2PA7STL2	NSW	30517	Suttons Homebush Nissan	Feb 2017					30/09/2017	DTX16E	28/02/2018	MR PRADEEP VELDANDI			R	 34,627.27					      181.81	CVP NOVEMBER 2017	
2410956	T32	 XTRAIL2PA7STL2	NSW	30517	Suttons Homebush Nissan	Feb 2017					30/09/2017	DTX16E	28/02/2018	MR PRADEEP VELDANDI			R	 34,627.27					      187.01	CVP DECEMBER 2017	
2410956	T32	 XTRAIL2PA7STL2	NSW	30517	Suttons Homebush Nissan	Feb 2017					30/09/2017	DTX16E	28/02/2018	MR PRADEEP VELDANDI			R	 34,627.27					      204.54	CVP JANUARY 2018	
2417815	T32	 XTRAIL2PA7STL2	NSW	30517	Suttons Homebush Nissan	Mar 2017	30/09/2017	MR LOUI KOLETSIOS			30/09/2017	DQW91M		MR LOUI KOLETSIOS			R	 34,627.27							
2431390	T32	 XTRAIL2PA7STL2	NSW	30517	Suttons Homebush Nissan	May 2017	10/10/2017	MR SUPAKIT WICHOTEKRUNGKRAI			19/10/2017	NID777		MR SUPAKIT WICHOTEKRUNGKRAI			R	 35,077.27							
2431398	T32	 XTRAIL2PA7STL2	NSW	30517	Suttons Homebush Nissan	May 2017	24/09/2017	MR HYEOKJAE KWON			29/09/2017	DQW90S		MR HYEOKJAE KWON			R	 35,077.27							
2435757	T32	 XTRAIL2PA7STL2	NSW	30517	Suttons Homebush Nissan	Jun 2017	30/09/2017	MR AHARON SHABTAY			30/09/2017	DQW91N	31/10/2017	MR AHARON SHABTAY	Nissan Dealership Employee	105841	E	 35,077.27							
2435757	T32	 XTRAIL2PA7STL2	NSW	30517	Suttons Homebush Nissan	Jun 2017	30/09/2017	MR AHARON SHABTAY			30/09/2017	DQW91N	31/10/2017	MR AHARON SHABTAY	Nissan Dealership Employee	105841	E	 35,077.27					    3,000.00	Dealer Fleet Claim authorised 01/11/2017	
2440444	T32	 XTRAIL2PA7STL2	NSW	30517	Suttons Homebush Nissan	Jul 2017					30/11/2017	DLU75A	29/10/2018	SUTTONS HOMEBUSH NISSAN			X	 35,081.82					    2,458.00	Z CAR PAYMENT	
2440444	T32	 XTRAIL2PA7STL2	NSW	30517	Suttons Homebush Nissan	Jul 2017					30/11/2017	DLU75A	29/10/2018	SUTTONS HOMEBUSH NISSAN			X	 35,081.82					      181.81	CVP NOVEMBER 2017	
2440444	T32	 XTRAIL2PA7STL2	NSW	30517	Suttons Homebush Nissan	Jul 2017					30/11/2017	DLU75A	29/10/2018	SUTTONS HOMEBUSH NISSAN			X	 35,081.82					      187.01	CVP DECEMBER 2017	
2440444	T32	 XTRAIL2PA7STL2	NSW	30517	Suttons Homebush Nissan	Jul 2017					30/11/2017	DLU75A	29/10/2018	SUTTONS HOMEBUSH NISSAN			X	 35,081.82					      204.54	CVP JANUARY 2018	
2440444	T32	 XTRAIL2PA7STL2	NSW	30517	Suttons Homebush Nissan	Jul 2017					30/11/2017	DLU75A	29/10/2018	SUTTONS HOMEBUSH NISSAN			X	 35,081.82					      218.23	CVP FEBRUARY 2018	
2440444	T32	 XTRAIL2PA7STL2	NSW	30517	Suttons Homebush Nissan	Jul 2017					30/11/2017	DLU75A	29/10/2018	SUTTONS HOMEBUSH NISSAN			X	 35,081.82					      251.74	CVP MARCH 2018	
2440444	T32	 XTRAIL2PA7STL2	NSW	30517	Suttons Homebush Nissan	Jul 2017					30/11/2017	DLU75A	29/10/2018	SUTTONS HOMEBUSH NISSAN			X	 35,081.82					      225.70	CVP APRIL 2018	
2440445	T32	 XTRAIL2PA7STL2	NSW	30517	Suttons Homebush Nissan	Jul 2017	20/12/2017	MRS SHELLEY YANG			29/12/2017	TBA		MRS SHELLEY YANG			R	 35,081.82					    2,272.72	SERIES 2 XTRAIL RETAIL BONUS	
2440445	T32	 XTRAIL2PA7STL2	NSW	30517	Suttons Homebush Nissan	Jul 2017	20/12/2017	MRS SHELLEY YANG			29/12/2017	TBA		MRS SHELLEY YANG			R	 35,081.82					      454.54	BOXING DAY SALE	
2440464	T32	 XTRAIL2PA7STL2	NSW	30517	Suttons Homebush Nissan	Jul 2017	28/11/2017	MR DARSHAN KHANAL			12/12/2017	DSS34M		MR DARSHAN KHANAL			R	 35,531.82					    2,272.72	SERIES 2 XTRAIL RETAIL BONUS	
2440468	T32	 XTRAIL2PA7STL2	NSW	30517	Suttons Homebush Nissan	Jul 2017	29/01/2018	MR ZHICHAO ZHAO			31/01/2018	TBA		MR ZHICHAO ZHAO			R	 35,531.82					    1,590.91	SERIES 2 XTRAIL RETAIL BONUS - 18 COMPLIANCE	
2448553	T32	 XTRAIL2PA7STL2	NSW	30517	Suttons Homebush Nissan	Sep 2017	09/01/2018	MR MARWAN MUBAIED			15/01/2018	DTE01E		MR MARWAN MUBAIED			R	 35,531.82					    2,272.72	SERIES 2 XTRAIL RETAIL BONUS	
2448556	T32	 XTRAIL2PA7STL2	NSW	30517	Suttons Homebush Nissan	Sep 2017	19/03/2018	MR TIRTHA POKHAREL			20/03/2018	DVK68B		MR TIRTHA POKHAREL			R	 35,081.82					    1,363.63	SERIES 2 XTRAIL RETAIL BONUS	
2448556	T32	 XTRAIL2PA7STL2	NSW	30517	Suttons Homebush Nissan	Sep 2017	19/03/2018	MR TIRTHA POKHAREL			20/03/2018	DVK68B		MR TIRTHA POKHAREL			R	 35,081.82					      454.54	SERIES 2 XTRAIL AGED STOCK BONUS	
2411015	T32	 XTRAIL2PA7ST2	NSW	30517	Suttons Homebush Nissan	Feb 2017	30/07/2017	MRS BESS HO YING SIMPSON			31/07/2017	TBA		MRS BESS HO YING SIMPSON			R	 29,081.82							
2443906	T32	 XTRAIL2PA7ST2	NSW	30517	Suttons Homebush Nissan	Jul 2017	31/01/2018	MR TUAN ANH LAI			31/01/2018	DXT16R		MR TUAN ANH LAI			R	 29,531.82					    2,272.72	SERIES 2 XTRAIL RETAIL BONUS	
2443926	T32	 XTRAIL2PA7ST2	NSW	30517	Suttons Homebush Nissan	Jul 2017	16/10/2017	MR ADISORN SUKTHAMMARAT	P-201710170		26/10/2017	DQR91R		MR ADISORN SUKTHAMMARAT			R	 29,081.82							
2446123	T32	 XTRAIL2PA7ST2	NSW	30517	Suttons Homebush Nissan	Aug 2017	31/12/2017	MR MATTHEW FELL			02/01/2018	TBA		MR MATTHEW FELL			R	 29,536.36					    2,272.72	SERIES 2 XTRAIL RETAIL BONUS	
2448548	T32	 XTRAIL2PA7ST2	NSW	30517	Suttons Homebush Nissan	Sep 2017					30/11/2017	DSS34R	05/04/2018	SUTTONS HOMEBUSH NISSAN			D	 29,986.36					      909.09	X-TRAIL SERIES 2 RETAIL BONUS	
2448548	T32	 XTRAIL2PA7ST2	NSW	30517	Suttons Homebush Nissan	Sep 2017					30/11/2017	DSS34R	05/04/2018	SUTTONS HOMEBUSH NISSAN			D	 29,986.36					      454.54	X-TRAIL SERIES 2 AGED STOCK BONUS	
2448548	T32	 XTRAIL2PA7ST2	NSW	30517	Suttons Homebush Nissan	Sep 2017					30/11/2017	DSS34R	05/04/2018	SUTTONS HOMEBUSH NISSAN			D	 29,986.36					      181.81	CVP NOVEMBER 2017	
2448548	T32	 XTRAIL2PA7ST2	NSW	30517	Suttons Homebush Nissan	Sep 2017					30/11/2017	DSS34R	05/04/2018	SUTTONS HOMEBUSH NISSAN			D	 29,986.36					      187.01	CVP DECEMBER 2017	
2448548	T32	 XTRAIL2PA7ST2	NSW	30517	Suttons Homebush Nissan	Sep 2017					30/11/2017	DSS34R	05/04/2018	SUTTONS HOMEBUSH NISSAN			D	 29,986.36					      204.54	CVP JANUARY 2018	
2448548	T32	 XTRAIL2PA7ST2	NSW	30517	Suttons Homebush Nissan	Sep 2017					30/11/2017	DSS34R	05/04/2018	SUTTONS HOMEBUSH NISSAN			D	 29,986.36					      218.18	CVP FEBRUARY 2018	
2448548	T32	 XTRAIL2PA7ST2	NSW	30517	Suttons Homebush Nissan	Sep 2017					30/11/2017	DSS34R	05/04/2018	SUTTONS HOMEBUSH NISSAN			D	 29,986.36					      251.74	CVP MARCH 2018	
2448549	T32	 XTRAIL2PA7ST2	NSW	30517	Suttons Homebush Nissan	Sep 2017	30/10/2017	MR VEERABHADRA KALYAN KORUMILLI	P-201710301		31/10/2017	TBA		MR VEERABHADRA KALYAN KORUMILLI			R	 29,536.36							
2450147	T32	 XTRAIL2PA7ST2	NSW	30517	Suttons Homebush Nissan	Sep 2017	19/11/2017	MR ABDUL SHAHMEEL			30/11/2017	DSG19X		MR ABDUL SHAHMEEL	SMARTSALARY PTY LIMITED	144024	I	 29,986.36					      500.00	PARTNER FLEET BONUS	
2450147	T32	 XTRAIL2PA7ST2	NSW	30517	Suttons Homebush Nissan	Sep 2017	19/11/2017	MR ABDUL SHAHMEEL			30/11/2017	DSG19X		MR ABDUL SHAHMEEL	SMARTSALARY PTY LIMITED	144024	I	 29,986.36					      454.55	NOV 17 CLOSING BONUS	
2450147	T32	 XTRAIL2PA7ST2	NSW	30517	Suttons Homebush Nissan	Sep 2017	19/11/2017	MR ABDUL SHAHMEEL			30/11/2017	DSG19X		MR ABDUL SHAHMEEL	SMARTSALARY PTY LIMITED	144024	I	 29,986.36					    1,350.00	Dealer Fleet Claim authorised 01/12/2017	
2454140	T32	 XTRAIL2PA7ST2	NSW	30517	Suttons Homebush Nissan	Oct 2017	14/01/2018	S K BUSINESS SERVICES P/L			19/01/2018	DTE01N		S K BUSINESS SERVICES P/L			R	 29,986.36					    2,272.72	SERIES 2 XTRAIL RETAIL BONUS	
2457873	T32	 XTRAIL2PA7ST2	NSW	30517	Suttons Homebush Nissan	Oct 2017	28/01/2018	GRB CONSULTANTS PTY LTD			31/01/2018	DTG45M		GRB CONSULTANTS PTY LTD			R	 29,536.36					    2,272.72	SERIES 2 XTRAIL RETAIL BONUS	
2443367	T32	 XTRAIL2PA7ST2	NSW	30517	Suttons Homebush Nissan	Dec 2017	08/03/2018	MR IVAN ARCAYO			22/03/2018	DVK68D		MR IVAN ARCAYO	Custom Service Leasing Limited	104707	I	 30,036.36					    1,650.00	PARTNER FLEET BONUS	
2443367	T32	 XTRAIL2PA7ST2	NSW	30517	Suttons Homebush Nissan	Dec 2017	08/03/2018	MR IVAN ARCAYO			22/03/2018	DVK68D		MR IVAN ARCAYO	Custom Service Leasing Limited	104707	I	 30,036.36					    1,350.00	Dealer Fleet Claim authorised 23/03/2018	
2475830	T32	 XTRAIL2PA7ST2	NSW	30517	Suttons Homebush Nissan	Jan 2018	08/01/2018	FRED IT GROUP PTY LTD			28/02/2018	TBA		FRED IT GROUP PTY LTD	FRED IT GROUP PTY LTD	130204	N	 30,036.36					      650.00	NATIONAL FLEET BONUS	
2475830	T32	 XTRAIL2PA7ST2	NSW	30517	Suttons Homebush Nissan	Jan 2018	08/01/2018	FRED IT GROUP PTY LTD			28/02/2018	TBA		FRED IT GROUP PTY LTD	FRED IT GROUP PTY LTD	130204	N	 30,036.36					    2,350.00	Dealer Fleet Claim authorised 01/03/2018	
2475854	T32	 XTRAIL2PA7ST2	NSW	30517	Suttons Homebush Nissan	Jan 2018	12/03/2018	MRS SOPHI BRUCE			20/03/2018	DVK68C		MRS SOPHI BRUCE			R	 30,036.36					    1,363.63	SERIES 2 XTRAIL RETAIL BONUS	
2446384	T32	 XTRAIL2PMST2	NSW	30517	Suttons Homebush Nissan	Aug 2017	21/01/2018	MR SLOBODAN DJORDJEVIC			31/01/2018	DTG45K		MR SLOBODAN DJORDJEVIC			R	 26,400.00					      909.09	SERIES 2 XTRAIL RETAIL BONUS - 18 COMPLIANCE	
2446380	T32	 XTRAIL2PMST2	NSW	30517	Suttons Homebush Nissan	Aug 2017	04/02/2018	MR GARY BENNETT			19/02/2018	GNB056		MR GARY BENNETT	Fleetplus Pty Ltd	104692	I	 26,400.00					    1,650.00	PARTNER FLEET BONUS	
2446380	T32	 XTRAIL2PMST2	NSW	30517	Suttons Homebush Nissan	Aug 2017	04/02/2018	MR GARY BENNETT			19/02/2018	GNB056		MR GARY BENNETT	Fleetplus Pty Ltd	104692	I	 26,400.00					    1,350.00	Dealer Fleet Claim authorised 20/02/2018	
2445859	T32	 XTRAIL4DATL2	NSW	30517	Suttons Homebush Nissan	Aug 2017	11/02/2018	MRS MARGARET POOLE			15/02/2018	DTX17K		MRS MARGARET POOLE			R	 43,440.91					    1,363.63	SERIES 2 XTRAIL RETAIL BONUS	
2445859	T32	 XTRAIL4DATL2	NSW	30517	Suttons Homebush Nissan	Aug 2017	11/02/2018	MRS MARGARET POOLE			15/02/2018	DTX17K		MRS MARGARET POOLE			R	 43,440.91					      454.54	SERIES 2 XTRAIL AGED STOCK BONUS	
2445909	T32	 XTRAIL4DATS2	NSW	30517	Suttons Homebush Nissan	Aug 2017	20/11/2017	ZINFRA PTY LTD			29/11/2017	TBA		ZINFRA PTY LTD	ZINFRA PTY LTD	106726	N	 32,718.18					      500.00	NATIONAL FLEET BONUS	
2445909	T32	 XTRAIL4DATS2	NSW	30517	Suttons Homebush Nissan	Aug 2017	20/11/2017	ZINFRA PTY LTD			29/11/2017	TBA		ZINFRA PTY LTD	ZINFRA PTY LTD	106726	N	 32,718.18					      454.55	NOV 17 CLOSING BONUS	
2445909	T32	 XTRAIL4DATS2	NSW	30517	Suttons Homebush Nissan	Aug 2017	20/11/2017	ZINFRA PTY LTD			29/11/2017	TBA		ZINFRA PTY LTD	ZINFRA PTY LTD	106726	N	 32,718.18					    2,350.00	Dealer Fleet Claim authorised 30/11/2017	
2417924	T32	 XTRAIL4PASTL2	NSW	30517	Suttons Homebush Nissan	Mar 2017	24/09/2017	MR HOON SUN LEE	P-201709220		29/09/2017	TBA		MR HOON SUN LEE			R	 35,531.82							
2431523	T32	 XTRAIL4PASTL2	NSW	30517	Suttons Homebush Nissan	May 2017	09/07/2017	MS STEPHANIE CABRERA			31/07/2017	DPS92F		MS STEPHANIE CABRERA			R	 35,531.82							
2431545	T32	 XTRAIL4PASTL2	NSW	30517	Suttons Homebush Nissan	May 2017	13/10/2017	WOOLLAHRA MUNICIPAL COUNCIL			24/10/2017	CN89CM		WOOLLAHRA MUNICIPAL COUNCIL	Woollahra Municipal Council	144905	L	 35,986.36							
2435993	T32	 XTRAIL4PASTL2	NSW	30517	Suttons Homebush Nissan	Jun 2017	18/08/2017	WOOLLAHRA MUNICIPAL COUNCIL			31/08/2017	TBA		WOOLLAHRA MUNICIPAL COUNCIL	Woollahra Municipal Council	144905	L	 35,531.82							
2435998	T32	 XTRAIL4PASTL2	NSW	30517	Suttons Homebush Nissan	Jun 2017	30/10/2017	DASFLEET GOVERNMENT SALES			31/10/2017	TBA444		DASFLEET GOVERNMENT SALES	Dasfleet Government Sales	66700	C	 35,536.36	70685	 6,954.54	 1,500.00	  400.00	    1,500.00	Dealer Fleet Claim authorised 01/11/2017	
2448495	T32	 XTRAIL4PASTL2	NSW	30517	Suttons Homebush Nissan	Sep 2017	26/10/2017	MR DAVID MURRAY			31/10/2017	DSG18K		MR DAVID MURRAY			R	 35,986.36							
2411131	T32	 XTRAIL4PAST2	NSW	30517	Suttons Homebush Nissan	Feb 2017	20/08/2017	MR DAVY ONG			30/08/2017	AMZ19Z		MR DAVY ONG			R	 29,986.36							
2425401	T32	 XTRAIL4PAST2	NSW	30517	Suttons Homebush Nissan	Apr 2017					19/09/2017	DQW91L	30/04/2018	SUTTONS HOMEBUSH NISSAN			D	 29,986.36					       56.00	T32W ORC CONTRIBUTION SERIES 2	
2425401	T32	 XTRAIL4PAST2	NSW	30517	Suttons Homebush Nissan	Apr 2017					19/09/2017	DQW91L	30/04/2018	SUTTONS HOMEBUSH NISSAN			D	 29,986.36					      909.09	SERIES 2 XTRAIL RETAIL BONUS	
2425401	T32	 XTRAIL4PAST2	NSW	30517	Suttons Homebush Nissan	Apr 2017					19/09/2017	DQW91L	30/04/2018	SUTTONS HOMEBUSH NISSAN			D	 29,986.36					      454.54	SERIES 2 XTRAIL AGED STOCK BONUS	
2425401	T32	 XTRAIL4PAST2	NSW	30517	Suttons Homebush Nissan	Apr 2017					19/09/2017	DQW91L	30/04/2018	SUTTONS HOMEBUSH NISSAN			D	 29,986.36					      363.63	SEP 17 FAST START	
2425401	T32	 XTRAIL4PAST2	NSW	30517	Suttons Homebush Nissan	Apr 2017					19/09/2017	DQW91L	30/04/2018	SUTTONS HOMEBUSH NISSAN			D	 29,986.36					      192.51	CVP SEPTEMBER 2017	
2425401	T32	 XTRAIL4PAST2	NSW	30517	Suttons Homebush Nissan	Apr 2017					19/09/2017	DQW91L	30/04/2018	SUTTONS HOMEBUSH NISSAN			D	 29,986.36					      192.51	CVP OCTOBER 2017	
2425401	T32	 XTRAIL4PAST2	NSW	30517	Suttons Homebush Nissan	Apr 2017					19/09/2017	DQW91L	30/04/2018	SUTTONS HOMEBUSH NISSAN			D	 29,986.36					      181.81	CVP NOVEMBER 2017	
2425401	T32	 XTRAIL4PAST2	NSW	30517	Suttons Homebush Nissan	Apr 2017					19/09/2017	DQW91L	30/04/2018	SUTTONS HOMEBUSH NISSAN			D	 29,986.36					      187.01	CVP DECEMBER 2017	
2425401	T32	 XTRAIL4PAST2	NSW	30517	Suttons Homebush Nissan	Apr 2017					19/09/2017	DQW91L	30/04/2018	SUTTONS HOMEBUSH NISSAN			D	 29,986.36					      204.54	CVP JANUARY 2018	
2425401	T32	 XTRAIL4PAST2	NSW	30517	Suttons Homebush Nissan	Apr 2017					19/09/2017	DQW91L	30/04/2018	SUTTONS HOMEBUSH NISSAN			D	 29,986.36					      218.18	CVP FEBRUARY 2018	
2424697	T32	 XTRAIL4PAST2	NSW	30517	Suttons Homebush Nissan	Apr 2017	20/07/2017	CUSTOM SERVICE LEASING			31/07/2017	CM54JL		CUSTOM SERVICE LEASING	KALACI PTY. LIMITED	117401	N	 29,536.36					    2,350.00	Dealer Fleet Claim authorised 01/08/2017	
2426898	T32	 XTRAIL4PAST2	NSW	30517	Suttons Homebush Nissan	May 2017	19/02/2018	MR MD ZAHIDUL ISLAM			20/02/2018	DTX17Q		MR MD ZAHIDUL ISLAM			R	 30,490.91					       56.00	T32W ORC CONTRIBUTION SERIES 2	
2426898	T32	 XTRAIL4PAST2	NSW	30517	Suttons Homebush Nissan	May 2017	19/02/2018	MR MD ZAHIDUL ISLAM			20/02/2018	DTX17Q		MR MD ZAHIDUL ISLAM			R	 30,490.91					    1,363.63	SERIES 2 XTRAIL RETAIL BONUS	
2453187	T32	 XTRAIL4PAST2	NSW	30517	Suttons Homebush Nissan	Sep 2017	06/11/2017	DASFLEET GOVERNMENT SALES			30/11/2017	CN80YH		DASFLEET GOVERNMENT SALES	Dasfleet Government Sales	66700	C	 30,440.91							
2458005	T32	 XTRAIL4PAST2	NSW	30517	Suttons Homebush Nissan	Oct 2017	16/01/2018	MR CHRISTOPHER HALL			30/01/2018	DTE01Z		MR CHRISTOPHER HALL			R	 30,440.91					       56.00	T32W ORC CONTRIBUTION SERIES 2	
2458005	T32	 XTRAIL4PAST2	NSW	30517	Suttons Homebush Nissan	Oct 2017	16/01/2018	MR CHRISTOPHER HALL			30/01/2018	DTE01Z		MR CHRISTOPHER HALL			R	 30,440.91					    1,363.63	SERIES 2 XTRAIL RETAIL BONUS	
2410152	T32	 XTRAIL4PATI	NSW	30517	Suttons Homebush Nissan	Jan 2017					31/03/2017	TBA	02/01/2018	MR SEONGGEUN KIM			R	 41,081.82					    2,147.00	T32W ORC - SERIES 1	
2410152	T32	 XTRAIL4PATI	NSW	30517	Suttons Homebush Nissan	Jan 2017					31/03/2017	TBA	02/01/2018	MR SEONGGEUN KIM			R	 41,081.82					    3,181.81	T32W RETAIL BONUSES SERIES 1	
2417993	T32	 XTRAIL4PATI2	NSW	30517	Suttons Homebush Nissan	Mar 2017					30/09/2017	DSG19U	29/11/2017	MISS LISA REED			R	 40,263.64							
2417993	T32	 XTRAIL4PATI2	NSW	30517	Suttons Homebush Nissan	Mar 2017					30/09/2017	DSG19U	29/11/2017	MISS LISA REED			R	 40,263.64					      192.51	CVP SEPTEMBER 2017	
2417993	T32	 XTRAIL4PATI2	NSW	30517	Suttons Homebush Nissan	Mar 2017					30/09/2017	DSG19U	29/11/2017	MISS LISA REED			R	 40,263.64					      192.51	CVP OCTOBER 2017	
2432163	T32	 XTRAIL4PATI2	NSW	30517	Suttons Homebush Nissan	May 2017	19/07/2017	MR CHRIS BAZOS			24/07/2017	DNH77Z		MR CHRIS BAZOS			R	 40,263.64							
2436045	T32	 XTRAIL4PATI2	NSW	30517	Suttons Homebush Nissan	Jun 2017	24/09/2017	MISS BIANCA ANTONIA PERICA	P-201709240		27/09/2017	DQW90D		MISS BIANCA ANTONIA PERICA			R	 40,263.64							
2436082	T32	 XTRAIL4PATI2	NSW	30517	Suttons Homebush Nissan	Jun 2017	22/10/2017	MR DAVID HOUGHTON	P-201710220		26/10/2017	DQW91X		MR DAVID HOUGHTON			R	 40,713.64							
2436011	T32	 XTRAIL4PATI2	NSW	30517	Suttons Homebush Nissan	Jun 2017	10/09/2017	NUOVO DESIGN STUDIO P/L			19/09/2017	DQN77D		NUOVO DESIGN STUDIO P/L			R	 40,713.64					      454.54	T32 SERIES 2 RETAIL BONUS	
2436011	T32	 XTRAIL4PATI2	NSW	30517	Suttons Homebush Nissan	Jun 2017	10/09/2017	NUOVO DESIGN STUDIO P/L			19/09/2017	DQN77D		NUOVO DESIGN STUDIO P/L			R	 40,713.64					      363.63	SEP 17 FAST START	
2436004	T32	 XTRAIL4PATI2	NSW	30517	Suttons Homebush Nissan	Jun 2017	15/08/2017	MR GORDON BARRY BURKE			22/08/2017	DQC61X		MR GORDON BARRY BURKE			R	 40,263.64							
2446500	T32	 XTRAIL4PATI2	NSW	30517	Suttons Homebush Nissan	Jul 2017	29/12/2017	MISS GRISHMA GLAN			29/12/2017	DSS35Z		MISS GRISHMA GLAN			R	 41,168.18					      454.54	BOXING DAY SALE	
2446500	T32	 XTRAIL4PATI2	NSW	30517	Suttons Homebush Nissan	Jul 2017	29/12/2017	MISS GRISHMA GLAN			29/12/2017	DSS35Z		MISS GRISHMA GLAN			R	 41,168.18					    2,272.72	SERIES 2 XTRAIL RETAIL BONUS	
2446024	T32	 XTRAIL4PATI2	NSW	30517	Suttons Homebush Nissan	Aug 2017	12/02/2018	MISS TAMMY FAN			21/02/2018	CN95YH		MISS TAMMY FAN			R	 41,168.18					    1,363.63	SERIES 2 XTRAIL RETAIL BONUS	
2443377	T32	 XTRAIL4PATI2	NSW	30517	Suttons Homebush Nissan	Sep 2017	03/01/2018	MISS ALISON TENEILLE MIFSUD			11/01/2018	DTE01D		MISS ALISON TENEILLE MIFSUD			R	 40,718.18					    2,272.72	SERIES 2 XTRAIL RETAIL BONUS	
2448490	T32	 XTRAIL4PATI2	NSW	30517	Suttons Homebush Nissan	Sep 2017	23/01/2018	MR JOSE VALDES			30/01/2018	DTE01Y		MR JOSE VALDES			R	 41,168.18					    2,272.72	SERIES 2 XTRAIL RETAIL BONUS	
2448491	T32	 XTRAIL4PATI2	NSW	30517	Suttons Homebush Nissan	Sep 2017	07/12/2017	ROMAN CATHOLIC TRUST CORPORATI			13/12/2017	DSS34N		ROMAN CATHOLIC TRUST CORPORATI	ROMAN CATHOLIC TRUST CORPORATION FOR THE	120892	Y	 40,718.18					      500.00	NATIONAL FLEET BONUS	
2448491	T32	 XTRAIL4PATI2	NSW	30517	Suttons Homebush Nissan	Sep 2017	07/12/2017	ROMAN CATHOLIC TRUST CORPORATI			13/12/2017	DSS34N		ROMAN CATHOLIC TRUST CORPORATI	ROMAN CATHOLIC TRUST CORPORATION FOR THE	120892	Y	 40,718.18					    2,350.00	Dealer Fleet Claim authorised 14/12/2017	
2453728	T32	 XTRAIL4PATI2	NSW	30517	Suttons Homebush Nissan	Oct 2017	28/02/2018	MR HAI CHEN			05/03/2018	DTX16L		MR HAI CHEN			R	 41,168.18					    1,363.63	SERIES 2 XTRAIL RETAIL BONUS	
2458012	T32	 XTRAIL4PATI2	NSW	30517	Suttons Homebush Nissan	Oct 2017	25/02/2018	COUPLE FABIOLA & DANIEL BEDON			28/02/2018	DTX16B		COUPLE FABIOLA & DANIEL BEDON			R	 41,218.18					    1,363.63	SERIES 2 XTRAIL RETAIL BONUS	
2459658	T32	 XTRAIL4PATI2	NSW	30517	Suttons Homebush Nissan	Oct 2017	02/01/2018	MR PREET SAWHNEY			22/01/2018	DTE01G		MR PREET SAWHNEY			R	 40,718.18					    1,590.91	SERIES 2 XTRAIL RETAIL BONUS - 18 COMPLIANCE	
2463600	T32	 XTRAIL4PATI2	NSW	30517	Suttons Homebush Nissan	Nov 2017	08/03/2018	MR NAM KOOK LEE			16/03/2018	DTX16W		MR NAM KOOK LEE			R	 41,218.18					    1,363.63	SERIES 2 XTRAIL RETAIL BONUS	
2439875	T32	 XTRAIL4PATTI2	NSW	30517	Suttons Homebush Nissan	Jul 2017	12/11/2017	MS SABAH TAOUK			24/11/2017	DSG19F		MS SABAH TAOUK			R	 40,713.64							
2439876	T32	 XTRAIL4PATTI2	NSW	30517	Suttons Homebush Nissan	Jul 2017	19/10/2017	MR AARON STODDART			20/10/2017	RAX684		MR AARON STODDART			R	 40,713.64							
2395222	Y62	 PATROLVATIL3	NSW	30517	Suttons Homebush Nissan	Jun 2017	16/08/2017	BREEN RESOURSCES  P/L			31/08/2017	DQC62P		BREEN RESOURSCES  P/L			B	 79,531.82							
2451744	Y62	 PATROLVATIL4	NSW	30517	Suttons Homebush Nissan	Sep 2017	31/12/2017	M Z SHOPFITTER & RENOVATIONS			02/01/2018	DSS35U		M Z SHOPFITTER & RENOVATIONS	Business Fleet - Small	5868	R	 80,900.00					      681.81	LOYALTY BONUS ADDED MANUALLY	
2451744	Y62	 PATROLVATIL4	NSW	30517	Suttons Homebush Nissan	Sep 2017	31/12/2017	M Z SHOPFITTER & RENOVATIONS			02/01/2018	DSS35U		M Z SHOPFITTER & RENOVATIONS	Business Fleet - Small	5868	R	 80,900.00					    1,500.00	Dealer Fleet Claim authorised 11/01/2018	
2467132	Y62	 PATROLVATI4	NSW	30517	Suttons Homebush Nissan	Dec 2017	13/02/2018	MRS KRISTINA PENNEY			19/02/2018	DTX17P		MRS KRISTINA PENNEY			R	 65,945.45							
2405970	Z34	  370ZA7	NSW	30517	Suttons Homebush Nissan	Jan 2017					21/07/2017	DPS92K	18/12/2017	HDMSW_______PTY LTD			R	 54,931.82					    6,818.18	DEC 17 Z34 DEMO BONUS	
2405970	Z34	  370ZA7	NSW	30517	Suttons Homebush Nissan	Jan 2017					21/07/2017	DPS92K	18/12/2017	HDMSW_______PTY LTD			R	 54,931.82					      211.14	CVP JULY 2017	
2405970	Z34	  370ZA7	NSW	30517	Suttons Homebush Nissan	Jan 2017					21/07/2017	DPS92K	18/12/2017	HDMSW_______PTY LTD			R	 54,931.82					      233.76	CVP AUGUST 2017	
2405970	Z34	  370ZA7	NSW	30517	Suttons Homebush Nissan	Jan 2017					21/07/2017	DPS92K	18/12/2017	HDMSW_______PTY LTD			R	 54,931.82					      192.51	CVP SEPTEMBER 2017	
2405970	Z34	  370ZA7	NSW	30517	Suttons Homebush Nissan	Jan 2017					21/07/2017	DPS92K	18/12/2017	HDMSW_______PTY LTD			R	 54,931.82					      192.51	CVP OCTOBER 2017	
2405970	Z34	  370ZA7	NSW	30517	Suttons Homebush Nissan	Jan 2017					21/07/2017	DPS92K	18/12/2017	HDMSW_______PTY LTD			R	 54,931.82					      181.81	CVP NOVEMBER 2017	
2418991	Z34	  370ZA7	NSW	30517	Suttons Homebush Nissan	Apr 2017	20/12/2017	MS BARBARA ANN HOBBA&DENT			29/12/2017	TBA		MS BARBARA ANN HOBBA&DENT			R	 48,168.18							
2438773	Z34	  370ZNA8	NSW	30517	Suttons Homebush Nissan	Jun 2017	04/09/2017	MISS AILEEN CHENG			28/09/2017	AC1965		MISS AILEEN CHENG			R	 58,172.73							
2438774	Z34	  370ZNA8	NSW	30517	Suttons Homebush Nissan	Jun 2017	26/11/2017	MR Jonathan Dykes			30/11/2017	DSS34D		MR Jonathan Dykes			R	 58,172.73					      454.55	NOV 17 CLOSING BONUS	
2438765	Z34	  370ZNA8	NSW	30517	Suttons Homebush Nissan	Jun 2017	03/12/2017	MR SARKIS YOUNES			29/12/2017	SD LLL		MR SARKIS YOUNES			R	 58,172.73							
2443754	Z34	  370ZNA8	NSW	30517	Suttons Homebush Nissan	Jul 2017	19/02/2018	MR MARK ASSAD			28/02/2018	DTX17X		MR MARK ASSAD			R	 58,172.73							
2448627	Z34	  370ZNA8	NSW	30517	Suttons Homebush Nissan	Aug 2017					13/12/2017	DSS34T	22/06/2018	SUTTONS HOMEBUSH NISSAN			D	 58,172.73					      187.01	CVP DECEMBER 2017	
2448627	Z34	  370ZNA8	NSW	30517	Suttons Homebush Nissan	Aug 2017					13/12/2017	DSS34T	22/06/2018	SUTTONS HOMEBUSH NISSAN			D	 58,172.73					      204.54	CVP JANUARY 2018	
2448627	Z34	  370ZNA8	NSW	30517	Suttons Homebush Nissan	Aug 2017					13/12/2017	DSS34T	22/06/2018	SUTTONS HOMEBUSH NISSAN			D	 58,172.73					      218.18	CVP FEBRUARY 2018	
2448627	Z34	  370ZNA8	NSW	30517	Suttons Homebush Nissan	Aug 2017					13/12/2017	DSS34T	22/06/2018	SUTTONS HOMEBUSH NISSAN			D	 58,172.73					      251.74	CVP MARCH 2018	
2448627	Z34	  370ZNA8	NSW	30517	Suttons Homebush Nissan	Aug 2017					13/12/2017	DSS34T	22/06/2018	SUTTONS HOMEBUSH NISSAN			D	 58,172.73					      225.70	CVP APRIL 2018	
2448627	Z34	  370ZNA8	NSW	30517	Suttons Homebush Nissan	Aug 2017					13/12/2017	DSS34T	22/06/2018	SUTTONS HOMEBUSH NISSAN			D	 58,172.73					      233.76	CVP MAY 2018	